

Microchip MPLAB XC8 Assembler V2.31 build 20201012212115 
                                                                                               Tue May 04 12:13:34 2021

Microchip MPLAB XC8 C Compiler v2.31 (Free license) build 20201012212115 Og1 
     1                           	processor	16F887
     2                           	pagewidth 120
     3                           	opt	flic
     4                           	psect	idataCOMMON,global,class=CODE,delta=2,noexec
     5                           	psect	cinit,global,class=CODE,merge=1,delta=2
     6                           	psect	bssCOMMON,global,class=COMMON,space=1,delta=1,noexec
     7                           	psect	dataCOMMON,global,class=COMMON,space=1,delta=1,noexec
     8                           	psect	cstackCOMMON,global,class=COMMON,space=1,delta=1,noexec
     9                           	psect	cstackBANK0,global,class=BANK0,space=1,delta=1,noexec
    10                           	psect	maintext,global,class=CODE,split=1,delta=2
    11                           	psect	text1,local,class=CODE,merge=1,delta=2
    12                           	psect	text2,local,class=CODE,merge=1,delta=2
    13                           	psect	intentry,global,class=CODE,delta=2
    14                           	psect	text3,local,class=CODE,merge=1,delta=2
    15                           	psect	text4,local,class=CODE,merge=1,delta=2
    16                           	psect	text5,local,class=CODE,merge=1,delta=2
    17                           	psect	config,global,abs,ovrld,class=CONFIG,space=4,delta=2,noexec
    18                           	dabs	1,0x7E,2
    19  0000                     
    20                           ; Version 2.20
    21                           ; Generated 12/02/2020 GMT
    22                           ; 
    23                           ; Copyright © 2020, Microchip Technology Inc. and its subsidiaries ("Microchip")
    24                           ; All rights reserved.
    25                           ; 
    26                           ; This software is developed by Microchip Technology Inc. and its subsidiaries ("Microch
      +                          ip").
    27                           ; 
    28                           ; Redistribution and use in source and binary forms, with or without modification, are
    29                           ; permitted provided that the following conditions are met:
    30                           ; 
    31                           ;     1. Redistributions of source code must retain the above copyright notice, this lis
      +                          t of
    32                           ;        conditions and the following disclaimer.
    33                           ; 
    34                           ;     2. Redistributions in binary form must reproduce the above copyright notice, this 
      +                          list
    35                           ;        of conditions and the following disclaimer in the documentation and/or other
    36                           ;        materials provided with the distribution.
    37                           ; 
    38                           ;     3. Microchip's name may not be used to endorse or promote products derived from th
      +                          is
    39                           ;        software without specific prior written permission.
    40                           ; 
    41                           ; THIS SOFTWARE IS PROVIDED BY MICROCHIP "AS IS" AND ANY EXPRESS OR IMPLIED WARRANTIES,
    42                           ; INCLUDING, BUT NOT LIMITED TO, THE IMPLIED WARRANTIES OF MERCHANTABILITY AND FITNESS F
      +                          OR
    43                           ; PURPOSE ARE DISCLAIMED.  IN NO EVENT SHALL MICROCHIP BE LIABLE FOR ANY DIRECT, INDIREC
      +                          T,
    44                           ; INCIDENTAL, SPECIAL, EXEMPLARY, OR CONSEQUENTIAL DAMAGES (INCLUDING BUT NOT LIMITED TO
    45                           ; PROCUREMENT OF SUBSTITUTE GOODS OR SERVICES; LOSS OF USE, DATA OR PROFITS; OR BUSINESS
    46                           ; INTERRUPTION) HOWSOEVER CAUSED AND ON ANY THEORY OF LIABILITY, WHETHER IN CONTRACT, ST
      +                          RICT
    47                           ; LIABILITY, OR TORT (INCLUDING NEGLIGENCE OR OTHERWISE) ARISING IN ANY WAY OUT OF THE U
      +                          SE OF
    48                           ; THIS SOFTWARE, EVEN IF ADVISED OF THE POSSIBILITY OF SUCH DAMAGE.
    49                           ; 
    50                           ; 
    51                           ; Code-generator required, PIC16F887 Definitions
    52                           ; 
    53                           ; SFR Addresses
    54  0000                     	;# 
    55  0001                     	;# 
    56  0002                     	;# 
    57  0003                     	;# 
    58  0004                     	;# 
    59  0005                     	;# 
    60  0006                     	;# 
    61  0007                     	;# 
    62  0008                     	;# 
    63  0009                     	;# 
    64  000A                     	;# 
    65  000B                     	;# 
    66  000C                     	;# 
    67  000D                     	;# 
    68  000E                     	;# 
    69  000E                     	;# 
    70  000F                     	;# 
    71  0010                     	;# 
    72  0011                     	;# 
    73  0012                     	;# 
    74  0013                     	;# 
    75  0014                     	;# 
    76  0015                     	;# 
    77  0015                     	;# 
    78  0016                     	;# 
    79  0017                     	;# 
    80  0018                     	;# 
    81  0019                     	;# 
    82  001A                     	;# 
    83  001B                     	;# 
    84  001B                     	;# 
    85  001C                     	;# 
    86  001D                     	;# 
    87  001E                     	;# 
    88  001F                     	;# 
    89  0081                     	;# 
    90  0085                     	;# 
    91  0086                     	;# 
    92  0087                     	;# 
    93  0088                     	;# 
    94  0089                     	;# 
    95  008C                     	;# 
    96  008D                     	;# 
    97  008E                     	;# 
    98  008F                     	;# 
    99  0090                     	;# 
   100  0091                     	;# 
   101  0092                     	;# 
   102  0093                     	;# 
   103  0093                     	;# 
   104  0093                     	;# 
   105  0094                     	;# 
   106  0095                     	;# 
   107  0096                     	;# 
   108  0097                     	;# 
   109  0098                     	;# 
   110  0099                     	;# 
   111  009A                     	;# 
   112  009B                     	;# 
   113  009C                     	;# 
   114  009D                     	;# 
   115  009E                     	;# 
   116  009F                     	;# 
   117  0105                     	;# 
   118  0107                     	;# 
   119  0108                     	;# 
   120  0109                     	;# 
   121  010C                     	;# 
   122  010C                     	;# 
   123  010D                     	;# 
   124  010E                     	;# 
   125  010F                     	;# 
   126  0185                     	;# 
   127  0187                     	;# 
   128  0188                     	;# 
   129  0189                     	;# 
   130  018C                     	;# 
   131  018D                     	;# 
   132  0000                     	;# 
   133  0001                     	;# 
   134  0002                     	;# 
   135  0003                     	;# 
   136  0004                     	;# 
   137  0005                     	;# 
   138  0006                     	;# 
   139  0007                     	;# 
   140  0008                     	;# 
   141  0009                     	;# 
   142  000A                     	;# 
   143  000B                     	;# 
   144  000C                     	;# 
   145  000D                     	;# 
   146  000E                     	;# 
   147  000E                     	;# 
   148  000F                     	;# 
   149  0010                     	;# 
   150  0011                     	;# 
   151  0012                     	;# 
   152  0013                     	;# 
   153  0014                     	;# 
   154  0015                     	;# 
   155  0015                     	;# 
   156  0016                     	;# 
   157  0017                     	;# 
   158  0018                     	;# 
   159  0019                     	;# 
   160  001A                     	;# 
   161  001B                     	;# 
   162  001B                     	;# 
   163  001C                     	;# 
   164  001D                     	;# 
   165  001E                     	;# 
   166  001F                     	;# 
   167  0081                     	;# 
   168  0085                     	;# 
   169  0086                     	;# 
   170  0087                     	;# 
   171  0088                     	;# 
   172  0089                     	;# 
   173  008C                     	;# 
   174  008D                     	;# 
   175  008E                     	;# 
   176  008F                     	;# 
   177  0090                     	;# 
   178  0091                     	;# 
   179  0092                     	;# 
   180  0093                     	;# 
   181  0093                     	;# 
   182  0093                     	;# 
   183  0094                     	;# 
   184  0095                     	;# 
   185  0096                     	;# 
   186  0097                     	;# 
   187  0098                     	;# 
   188  0099                     	;# 
   189  009A                     	;# 
   190  009B                     	;# 
   191  009C                     	;# 
   192  009D                     	;# 
   193  009E                     	;# 
   194  009F                     	;# 
   195  0105                     	;# 
   196  0107                     	;# 
   197  0108                     	;# 
   198  0109                     	;# 
   199  010C                     	;# 
   200  010C                     	;# 
   201  010D                     	;# 
   202  010E                     	;# 
   203  010F                     	;# 
   204  0185                     	;# 
   205  0187                     	;# 
   206  0188                     	;# 
   207  0189                     	;# 
   208  018C                     	;# 
   209  018D                     	;# 
   210                           
   211                           	psect	idataCOMMON
   212  07CC                     __pidataCOMMON:
   213                           
   214                           ;initializer for _Constante_impresion
   215  07CC  3446               	retlw	70
   216  000B                     _INTCONbits	set	11
   217  0018                     _RCSTAbits	set	24
   218  0006                     _PORTB	set	6
   219  001A                     _RCREG	set	26
   220  0005                     _PORTA	set	5
   221  0019                     _TXREG	set	25
   222  000C                     _PIR1bits	set	12
   223  008C                     _PIE1bits	set	140
   224  009A                     _SPBRGH	set	154
   225  0099                     _SPBRG	set	153
   226  0098                     _TXSTAbits	set	152
   227  0086                     _TRISB	set	134
   228  0085                     _TRISA	set	133
   229  008F                     _OSCCONbits	set	143
   230  0187                     _BAUDCTLbits	set	391
   231  0189                     _ANSELH	set	393
   232  0188                     _ANSEL	set	392
   233                           
   234                           	psect	cinit
   235  0011                     start_initialization:	
   236                           ; #config settings
   237                           
   238  0011                     __initialization:
   239                           
   240                           ; Initialize objects allocated to COMMON
   241  0011  120A  118A  27CC  120A  118A  	fcall	__pidataCOMMON	;fetch initializer
   242  0016  00F8               	movwf	__pdataCOMMON& (0+127)
   243                           
   244                           ; Clear objects allocated to COMMON
   245  0017  01F7               	clrf	__pbssCOMMON& (0+127)
   246  0018                     end_of_initialization:	
   247                           ;End of C runtime variable initialization code
   248                           
   249  0018                     __end_of__initialization:
   250  0018  0183               	clrf	3
   251  0019  120A  118A  2F95   	ljmp	_main	;jump to C main() function
   252                           
   253                           	psect	bssCOMMON
   254  0077                     __pbssCOMMON:
   255  0077                     _Boolean:
   256  0077                     	ds	1
   257                           
   258                           	psect	dataCOMMON
   259  0078                     __pdataCOMMON:
   260  0078                     _Constante_impresion:
   261  0078                     	ds	1
   262                           
   263                           	psect	cstackCOMMON
   264  0070                     __pcstackCOMMON:
   265  0070                     ?_HOLA_MUNDO:
   266  0070                     ??_HOLA_MUNDO:	
   267                           ; 1 bytes @ 0x0
   268                           
   269  0070                     ?_MENU:	
   270                           ; 1 bytes @ 0x0
   271                           
   272  0070                     ?_INGRESE_NUEVO_VALOR:	
   273                           ; 1 bytes @ 0x0
   274                           
   275  0070                     ??_INGRESE_NUEVO_VALOR:	
   276                           ; 1 bytes @ 0x0
   277                           
   278  0070                     ?_isr:	
   279                           ; 1 bytes @ 0x0
   280                           
   281  0070                     ?_main:	
   282                           ; 1 bytes @ 0x0
   283                           
   284  0070                     ?i1_MENU:	
   285                           ; 1 bytes @ 0x0
   286                           
   287  0070                     ??i1_MENU:	
   288                           ; 1 bytes @ 0x0
   289                           
   290                           
   291                           ; 1 bytes @ 0x0
   292  0070                     	ds	2
   293  0072                     ??_isr:
   294                           
   295                           ; 1 bytes @ 0x2
   296  0072                     	ds	5
   297                           
   298                           	psect	cstackBANK0
   299  0020                     __pcstackBANK0:
   300  0020                     ??_MENU:
   301                           
   302                           ; 1 bytes @ 0x0
   303  0020                     	ds	2
   304  0022                     ??_main:
   305                           
   306                           	psect	maintext
   307  0795                     __pmaintext:	
   308                           ; 1 bytes @ 0x2
   309 ;;
   310 ;;Main: autosize = 0, tempsize = 0, incstack = 0, save=0
   311 ;;
   312 ;; *************** function _main *****************
   313 ;; Defined at:
   314 ;;		line 838 in file "Sereal2.c"
   315 ;; Parameters:    Size  Location     Type
   316 ;;		None
   317 ;; Auto vars:     Size  Location     Type
   318 ;;		None
   319 ;; Return value:  Size  Location     Type
   320 ;;                  1    wreg      void 
   321 ;; Registers used:
   322 ;;		wreg, status,2, status,0, pclath, cstack
   323 ;; Tracked objects:
   324 ;;		On entry : B00/0
   325 ;;		On exit  : 0/0
   326 ;;		Unchanged: 0/0
   327 ;; Data sizes:     COMMON   BANK0   BANK1   BANK3   BANK2
   328 ;;      Params:         0       0       0       0       0
   329 ;;      Locals:         0       0       0       0       0
   330 ;;      Temps:          0       0       0       0       0
   331 ;;      Totals:         0       0       0       0       0
   332 ;;Total ram usage:        0 bytes
   333 ;; Hardware stack levels required when called:    3
   334 ;; This function calls:
   335 ;;		_MENU
   336 ;; This function is called by:
   337 ;;		Startup code after reset
   338 ;; This function uses a non-reentrant model
   339 ;;
   340                           
   341                           
   342                           ;psect for function _main
   343  0795                     _main:
   344  0795                     l2348:	
   345                           ;incstack = 0
   346                           ; Regs used in _main: [wreg+status,2+status,0+pclath+cstack]
   347                           
   348                           
   349                           ;Sereal2.c: 841:     PIR1bits.RCIF = 1;
   350  0795  1683               	bsf	3,5	;RP0=1, select bank1
   351  0796  1303               	bcf	3,6	;RP1=0, select bank1
   352  0797  170F               	bsf	15,6	;volatile
   353                           
   354                           ;Sereal2.c: 842:     PIE1bits.RCIE = 1;
   355  0798  128F               	bcf	15,5	;volatile
   356                           
   357                           ;Sereal2.c: 843:     INTCONbits.PEIE = 1;
   358  0799  120F               	bcf	15,4	;volatile
   359                           
   360                           ;Sereal2.c: 844:     INTCONbits.GIE = 1;
   361  079A  140F               	bsf	15,0	;volatile
   362  079B                     l2350:
   363                           
   364                           ;Sereal2.c: 846:     MENU ();
   365  079B  1683               	bsf	3,5	;RP0=1, select bank3
   366  079C  1703               	bsf	3,6	;RP1=1, select bank3
   367  079D  0188               	clrf	8	;volatile
   368                           
   369                           ;Sereal2.c: 847: 
   370  079E  0189               	clrf	9	;volatile
   371                           
   372                           ;Sereal2.c: 848:     while (1)
   373  079F  1683               	bsf	3,5	;RP0=1, select bank1
   374  07A0  1303               	bcf	3,6	;RP1=0, select bank1
   375  07A1  0185               	clrf	5	;volatile
   376                           
   377                           ;Sereal2.c: 849:     {
   378  07A2  0186               	clrf	6	;volatile
   379                           
   380                           ;Sereal2.c: 851:     }
   381  07A3  1283               	bcf	3,5	;RP0=0, select bank0
   382  07A4  1303               	bcf	3,6	;RP1=0, select bank0
   383  07A5  0185               	clrf	5	;volatile
   384                           
   385                           ;Sereal2.c: 852: 
   386  07A6  0186               	clrf	6	;volatile
   387  07A7                     l2352:
   388  07A7  1683               	bsf	3,5	;RP0=1, select bank1
   389  07A8  1303               	bcf	3,6	;RP1=0, select bank1
   390  07A9  1218               	bcf	24,4	;volatile
   391  07AA                     l2354:
   392  07AA  1518               	bsf	24,2	;volatile
   393  07AB                     l2356:
   394  07AB  1683               	bsf	3,5	;RP0=1, select bank3
   395  07AC  1703               	bsf	3,6	;RP1=1, select bank3
   396  07AD  1587               	bsf	7,3	;volatile
   397  07AE                     l2358:
   398  07AE  3019               	movlw	25
   399  07AF  1683               	bsf	3,5	;RP0=1, select bank1
   400  07B0  1303               	bcf	3,6	;RP1=0, select bank1
   401  07B1  0099               	movwf	25	;volatile
   402  07B2                     l2360:
   403  07B2  019A               	clrf	26	;volatile
   404  07B3                     l2362:
   405  07B3  1283               	bcf	3,5	;RP0=0, select bank0
   406  07B4  1303               	bcf	3,6	;RP1=0, select bank0
   407  07B5  1798               	bsf	24,7	;volatile
   408  07B6                     l2364:
   409  07B6  1318               	bcf	24,6	;volatile
   410  07B7                     l2366:
   411  07B7  1618               	bsf	24,4	;volatile
   412  07B8                     l2368:
   413  07B8  1683               	bsf	3,5	;RP0=1, select bank1
   414  07B9  1303               	bcf	3,6	;RP1=0, select bank1
   415  07BA  1698               	bsf	24,5	;volatile
   416  07BB                     l2370:
   417  07BB  1283               	bcf	3,5	;RP0=0, select bank0
   418  07BC  1303               	bcf	3,6	;RP1=0, select bank0
   419  07BD  168C               	bsf	12,5	;volatile
   420  07BE                     l2372:
   421  07BE  1683               	bsf	3,5	;RP0=1, select bank1
   422  07BF  1303               	bcf	3,6	;RP1=0, select bank1
   423  07C0  168C               	bsf	12,5	;volatile
   424  07C1                     l2374:
   425  07C1  170B               	bsf	11,6	;volatile
   426  07C2                     l2376:
   427  07C2  178B               	bsf	11,7	;volatile
   428  07C3                     l2378:
   429  07C3  120A  118A  201C  120A  118A  	fcall	_MENU
   430  07C8                     l219:
   431  07C8                     l220:
   432  07C8  2FC8               	goto	l219
   433  07C9  120A  118A  280E   	ljmp	start
   434  07CC                     __end_of_main:
   435                           
   436                           	psect	text1
   437  001C                     __ptext1:	
   438 ;; *************** function _MENU *****************
   439 ;; Defined at:
   440 ;;		line 139 in file "Sereal2.c"
   441 ;; Parameters:    Size  Location     Type
   442 ;;		None
   443 ;; Auto vars:     Size  Location     Type
   444 ;;		None
   445 ;; Return value:  Size  Location     Type
   446 ;;                  1    wreg      void 
   447 ;; Registers used:
   448 ;;		wreg
   449 ;; Tracked objects:
   450 ;;		On entry : 0/0
   451 ;;		On exit  : 0/0
   452 ;;		Unchanged: 0/0
   453 ;; Data sizes:     COMMON   BANK0   BANK1   BANK3   BANK2
   454 ;;      Params:         0       0       0       0       0
   455 ;;      Locals:         0       0       0       0       0
   456 ;;      Temps:          0       2       0       0       0
   457 ;;      Totals:         0       2       0       0       0
   458 ;;Total ram usage:        2 bytes
   459 ;; Hardware stack levels used:    1
   460 ;; Hardware stack levels required when called:    2
   461 ;; This function calls:
   462 ;;		Nothing
   463 ;; This function is called by:
   464 ;;		_main
   465 ;; This function uses a non-reentrant model
   466 ;;
   467                           
   468                           
   469                           ;psect for function _MENU
   470  001C                     _MENU:
   471  001C                     l1902:	
   472                           ;incstack = 0
   473                           ; Regs used in _MENU: [wreg]
   474                           
   475                           
   476                           ;Sereal2.c: 141:         }
   477  001C  300D               	movlw	13
   478  001D  1283               	bcf	3,5	;RP0=0, select bank0
   479  001E  1303               	bcf	3,6	;RP1=0, select bank0
   480  001F  00A1               	movwf	??_MENU+1
   481  0020  30FB               	movlw	251
   482  0021  00A0               	movwf	??_MENU
   483  0022                     u3507:
   484  0022  0BA0               	decfsz	??_MENU,f
   485  0023  2822               	goto	u3507
   486  0024  0BA1               	decfsz	??_MENU+1,f
   487  0025  2822               	goto	u3507
   488  0026                     l1904:
   489                           
   490                           ;Sereal2.c: 142:         _delay((unsigned long)((5)*(8000000/4000.0)));
   491  0026  1283               	bcf	3,5	;RP0=0, select bank0
   492  0027  1303               	bcf	3,6	;RP1=0, select bank0
   493  0028  1E0C               	btfss	12,4	;volatile
   494  0029  282B               	goto	u2521
   495  002A  282C               	goto	u2520
   496  002B                     u2521:
   497  002B  282E               	goto	l66
   498  002C                     u2520:
   499  002C                     l1906:
   500                           
   501                           ;Sereal2.c: 143:         if (PIR1bits.TXIF);Sereal2.c: 144:         {
   502  002C  3051               	movlw	81
   503  002D  0099               	movwf	25	;volatile
   504  002E                     l66:	
   505                           ;Sereal2.c: 145:             TXREG = 99;
   506                           
   507                           
   508                           ;Sereal2.c: 146:         }
   509  002E  300D               	movlw	13
   510  002F  1283               	bcf	3,5	;RP0=0, select bank0
   511  0030  1303               	bcf	3,6	;RP1=0, select bank0
   512  0031  00A1               	movwf	??_MENU+1
   513  0032  30FB               	movlw	251
   514  0033  00A0               	movwf	??_MENU
   515  0034                     u3517:
   516  0034  0BA0               	decfsz	??_MENU,f
   517  0035  2834               	goto	u3517
   518  0036  0BA1               	decfsz	??_MENU+1,f
   519  0037  2834               	goto	u3517
   520  0038                     l1908:
   521                           
   522                           ;Sereal2.c: 147:         _delay((unsigned long)((5)*(8000000/4000.0)));
   523  0038  1283               	bcf	3,5	;RP0=0, select bank0
   524  0039  1303               	bcf	3,6	;RP1=0, select bank0
   525  003A  1E0C               	btfss	12,4	;volatile
   526  003B  283D               	goto	u2531
   527  003C  283E               	goto	u2530
   528  003D                     u2531:
   529  003D  2840               	goto	l67
   530  003E                     u2530:
   531  003E                     l1910:
   532                           
   533                           ;Sereal2.c: 148:         if (PIR1bits.TXIF);Sereal2.c: 149:         {
   534  003E  3075               	movlw	117
   535  003F  0099               	movwf	25	;volatile
   536  0040                     l67:	
   537                           ;Sereal2.c: 150:             TXREG = 105;
   538                           
   539                           
   540                           ;Sereal2.c: 151:         }
   541  0040  300D               	movlw	13
   542  0041  1283               	bcf	3,5	;RP0=0, select bank0
   543  0042  1303               	bcf	3,6	;RP1=0, select bank0
   544  0043  00A1               	movwf	??_MENU+1
   545  0044  30FB               	movlw	251
   546  0045  00A0               	movwf	??_MENU
   547  0046                     u3527:
   548  0046  0BA0               	decfsz	??_MENU,f
   549  0047  2846               	goto	u3527
   550  0048  0BA1               	decfsz	??_MENU+1,f
   551  0049  2846               	goto	u3527
   552  004A                     l1912:
   553                           
   554                           ;Sereal2.c: 152:         _delay((unsigned long)((5)*(8000000/4000.0)));
   555  004A  1283               	bcf	3,5	;RP0=0, select bank0
   556  004B  1303               	bcf	3,6	;RP1=0, select bank0
   557  004C  1E0C               	btfss	12,4	;volatile
   558  004D  284F               	goto	u2541
   559  004E  2850               	goto	u2540
   560  004F                     u2541:
   561  004F  2852               	goto	l68
   562  0050                     u2540:
   563  0050                     l1914:
   564                           
   565                           ;Sereal2.c: 153:         if (PIR1bits.TXIF);Sereal2.c: 154:         {
   566  0050  3065               	movlw	101
   567  0051  0099               	movwf	25	;volatile
   568  0052                     l68:	
   569                           ;Sereal2.c: 155:             TXREG = 111;
   570                           
   571                           
   572                           ;Sereal2.c: 156:         }
   573  0052  300D               	movlw	13
   574  0053  1283               	bcf	3,5	;RP0=0, select bank0
   575  0054  1303               	bcf	3,6	;RP1=0, select bank0
   576  0055  00A1               	movwf	??_MENU+1
   577  0056  30FB               	movlw	251
   578  0057  00A0               	movwf	??_MENU
   579  0058                     u3537:
   580  0058  0BA0               	decfsz	??_MENU,f
   581  0059  2858               	goto	u3537
   582  005A  0BA1               	decfsz	??_MENU+1,f
   583  005B  2858               	goto	u3537
   584  005C                     l1916:
   585                           
   586                           ;Sereal2.c: 157:         _delay((unsigned long)((5)*(8000000/4000.0)));
   587  005C  1283               	bcf	3,5	;RP0=0, select bank0
   588  005D  1303               	bcf	3,6	;RP1=0, select bank0
   589  005E  1E0C               	btfss	12,4	;volatile
   590  005F  2861               	goto	u2551
   591  0060  2862               	goto	u2550
   592  0061                     u2551:
   593  0061  2864               	goto	l69
   594  0062                     u2550:
   595  0062                     l1918:
   596                           
   597                           ;Sereal2.c: 158:         if (PIR1bits.TXIF);Sereal2.c: 159:         {
   598  0062  3020               	movlw	32
   599  0063  0099               	movwf	25	;volatile
   600  0064                     l69:	
   601                           ;Sereal2.c: 160:             TXREG = 110;
   602                           
   603                           
   604                           ;Sereal2.c: 161:         }
   605  0064  300D               	movlw	13
   606  0065  1283               	bcf	3,5	;RP0=0, select bank0
   607  0066  1303               	bcf	3,6	;RP1=0, select bank0
   608  0067  00A1               	movwf	??_MENU+1
   609  0068  30FB               	movlw	251
   610  0069  00A0               	movwf	??_MENU
   611  006A                     u3547:
   612  006A  0BA0               	decfsz	??_MENU,f
   613  006B  286A               	goto	u3547
   614  006C  0BA1               	decfsz	??_MENU+1,f
   615  006D  286A               	goto	u3547
   616  006E                     l1920:
   617                           
   618                           ;Sereal2.c: 162: 
   619  006E  1283               	bcf	3,5	;RP0=0, select bank0
   620  006F  1303               	bcf	3,6	;RP1=0, select bank0
   621  0070  1E0C               	btfss	12,4	;volatile
   622  0071  2873               	goto	u2561
   623  0072  2874               	goto	u2560
   624  0073                     u2561:
   625  0073  2876               	goto	l70
   626  0074                     u2560:
   627  0074                     l1922:
   628                           
   629                           ;Sereal2.c: 163:         if (PIR1bits.TXIF);Sereal2.c: 164:         {
   630  0074  3061               	movlw	97
   631  0075  0099               	movwf	25	;volatile
   632  0076                     l70:	
   633                           ;Sereal2.c: 165:             TXREG = 32;
   634                           
   635                           
   636                           ;Sereal2.c: 166:         }
   637  0076  300D               	movlw	13
   638  0077  1283               	bcf	3,5	;RP0=0, select bank0
   639  0078  1303               	bcf	3,6	;RP1=0, select bank0
   640  0079  00A1               	movwf	??_MENU+1
   641  007A  30FB               	movlw	251
   642  007B  00A0               	movwf	??_MENU
   643  007C                     u3557:
   644  007C  0BA0               	decfsz	??_MENU,f
   645  007D  287C               	goto	u3557
   646  007E  0BA1               	decfsz	??_MENU+1,f
   647  007F  287C               	goto	u3557
   648  0080                     l1924:
   649                           
   650                           ;Sereal2.c: 167:         _delay((unsigned long)((5)*(8000000/4000.0)));
   651  0080  1283               	bcf	3,5	;RP0=0, select bank0
   652  0081  1303               	bcf	3,6	;RP1=0, select bank0
   653  0082  1E0C               	btfss	12,4	;volatile
   654  0083  2885               	goto	u2571
   655  0084  2886               	goto	u2570
   656  0085                     u2571:
   657  0085  2888               	goto	l71
   658  0086                     u2570:
   659  0086                     l1926:
   660                           
   661                           ;Sereal2.c: 168:         if (PIR1bits.TXIF);Sereal2.c: 169:         {
   662  0086  3063               	movlw	99
   663  0087  0099               	movwf	25	;volatile
   664  0088                     l71:	
   665                           ;Sereal2.c: 170:             TXREG = 100;
   666                           
   667                           
   668                           ;Sereal2.c: 171:         }
   669  0088  300D               	movlw	13
   670  0089  1283               	bcf	3,5	;RP0=0, select bank0
   671  008A  1303               	bcf	3,6	;RP1=0, select bank0
   672  008B  00A1               	movwf	??_MENU+1
   673  008C  30FB               	movlw	251
   674  008D  00A0               	movwf	??_MENU
   675  008E                     u3567:
   676  008E  0BA0               	decfsz	??_MENU,f
   677  008F  288E               	goto	u3567
   678  0090  0BA1               	decfsz	??_MENU+1,f
   679  0091  288E               	goto	u3567
   680  0092                     l1928:
   681                           
   682                           ;Sereal2.c: 172:         _delay((unsigned long)((5)*(8000000/4000.0)));
   683  0092  1283               	bcf	3,5	;RP0=0, select bank0
   684  0093  1303               	bcf	3,6	;RP1=0, select bank0
   685  0094  1E0C               	btfss	12,4	;volatile
   686  0095  2897               	goto	u2581
   687  0096  2898               	goto	u2580
   688  0097                     u2581:
   689  0097  289A               	goto	l72
   690  0098                     u2580:
   691  0098                     l1930:
   692                           
   693                           ;Sereal2.c: 173:         if (PIR1bits.TXIF);Sereal2.c: 174:         {
   694  0098  3063               	movlw	99
   695  0099  0099               	movwf	25	;volatile
   696  009A                     l72:	
   697                           ;Sereal2.c: 175:             TXREG = 101;
   698                           
   699                           
   700                           ;Sereal2.c: 176:         }
   701  009A  300D               	movlw	13
   702  009B  1283               	bcf	3,5	;RP0=0, select bank0
   703  009C  1303               	bcf	3,6	;RP1=0, select bank0
   704  009D  00A1               	movwf	??_MENU+1
   705  009E  30FB               	movlw	251
   706  009F  00A0               	movwf	??_MENU
   707  00A0                     u3577:
   708  00A0  0BA0               	decfsz	??_MENU,f
   709  00A1  28A0               	goto	u3577
   710  00A2  0BA1               	decfsz	??_MENU+1,f
   711  00A3  28A0               	goto	u3577
   712  00A4                     l1932:
   713                           
   714                           ;Sereal2.c: 177:         _delay((unsigned long)((5)*(8000000/4000.0)));
   715  00A4  1283               	bcf	3,5	;RP0=0, select bank0
   716  00A5  1303               	bcf	3,6	;RP1=0, select bank0
   717  00A6  1E0C               	btfss	12,4	;volatile
   718  00A7  28A9               	goto	u2591
   719  00A8  28AA               	goto	u2590
   720  00A9                     u2591:
   721  00A9  28AC               	goto	l73
   722  00AA                     u2590:
   723  00AA                     l1934:
   724                           
   725                           ;Sereal2.c: 178:         if (PIR1bits.TXIF);Sereal2.c: 179:         {
   726  00AA  3069               	movlw	105
   727  00AB  0099               	movwf	25	;volatile
   728  00AC                     l73:	
   729                           ;Sereal2.c: 180:             TXREG = 115;
   730                           
   731                           
   732                           ;Sereal2.c: 181:         }
   733  00AC  300D               	movlw	13
   734  00AD  1283               	bcf	3,5	;RP0=0, select bank0
   735  00AE  1303               	bcf	3,6	;RP1=0, select bank0
   736  00AF  00A1               	movwf	??_MENU+1
   737  00B0  30FB               	movlw	251
   738  00B1  00A0               	movwf	??_MENU
   739  00B2                     u3587:
   740  00B2  0BA0               	decfsz	??_MENU,f
   741  00B3  28B2               	goto	u3587
   742  00B4  0BA1               	decfsz	??_MENU+1,f
   743  00B5  28B2               	goto	u3587
   744  00B6                     l1936:
   745                           
   746                           ;Sereal2.c: 182:         _delay((unsigned long)((5)*(8000000/4000.0)));
   747  00B6  1283               	bcf	3,5	;RP0=0, select bank0
   748  00B7  1303               	bcf	3,6	;RP1=0, select bank0
   749  00B8  1E0C               	btfss	12,4	;volatile
   750  00B9  28BB               	goto	u2601
   751  00BA  28BC               	goto	u2600
   752  00BB                     u2601:
   753  00BB  28BE               	goto	l74
   754  00BC                     u2600:
   755  00BC                     l1938:
   756                           
   757                           ;Sereal2.c: 183:         if (PIR1bits.TXIF);Sereal2.c: 184:         {
   758  00BC  306F               	movlw	111
   759  00BD  0099               	movwf	25	;volatile
   760  00BE                     l74:	
   761                           ;Sereal2.c: 185:             TXREG = 101;
   762                           
   763                           
   764                           ;Sereal2.c: 186:         }
   765  00BE  300D               	movlw	13
   766  00BF  1283               	bcf	3,5	;RP0=0, select bank0
   767  00C0  1303               	bcf	3,6	;RP1=0, select bank0
   768  00C1  00A1               	movwf	??_MENU+1
   769  00C2  30FB               	movlw	251
   770  00C3  00A0               	movwf	??_MENU
   771  00C4                     u3597:
   772  00C4  0BA0               	decfsz	??_MENU,f
   773  00C5  28C4               	goto	u3597
   774  00C6  0BA1               	decfsz	??_MENU+1,f
   775  00C7  28C4               	goto	u3597
   776  00C8                     l1940:
   777                           
   778                           ;Sereal2.c: 187:         _delay((unsigned long)((5)*(8000000/4000.0)));
   779  00C8  1283               	bcf	3,5	;RP0=0, select bank0
   780  00C9  1303               	bcf	3,6	;RP1=0, select bank0
   781  00CA  1E0C               	btfss	12,4	;volatile
   782  00CB  28CD               	goto	u2611
   783  00CC  28CE               	goto	u2610
   784  00CD                     u2611:
   785  00CD  28D0               	goto	l1944
   786  00CE                     u2610:
   787  00CE                     l1942:
   788                           
   789                           ;Sereal2.c: 188:         if (PIR1bits.TXIF);Sereal2.c: 189:         {
   790  00CE  306E               	movlw	110
   791  00CF  0099               	movwf	25	;volatile
   792  00D0                     l1944:
   793                           
   794                           ;Sereal2.c: 192:         _delay((unsigned long)((5)*(8000000/4000.0)));
   795  00D0  1E0C               	btfss	12,4	;volatile
   796  00D1  28D3               	goto	u2621
   797  00D2  28D4               	goto	u2620
   798  00D3                     u2621:
   799  00D3  28D6               	goto	l76
   800  00D4                     u2620:
   801  00D4                     l1946:
   802                           
   803                           ;Sereal2.c: 193:         if (PIR1bits.TXIF);Sereal2.c: 194:         {
   804  00D4  3020               	movlw	32
   805  00D5  0099               	movwf	25	;volatile
   806  00D6                     l76:	
   807                           ;Sereal2.c: 195:             TXREG = 32;
   808                           
   809                           
   810                           ;Sereal2.c: 196:         }
   811  00D6  300D               	movlw	13
   812  00D7  1283               	bcf	3,5	;RP0=0, select bank0
   813  00D8  1303               	bcf	3,6	;RP1=0, select bank0
   814  00D9  00A1               	movwf	??_MENU+1
   815  00DA  30FB               	movlw	251
   816  00DB  00A0               	movwf	??_MENU
   817  00DC                     u3607:
   818  00DC  0BA0               	decfsz	??_MENU,f
   819  00DD  28DC               	goto	u3607
   820  00DE  0BA1               	decfsz	??_MENU+1,f
   821  00DF  28DC               	goto	u3607
   822  00E0                     l1948:
   823                           
   824                           ;Sereal2.c: 197:         _delay((unsigned long)((5)*(8000000/4000.0)));
   825  00E0  1283               	bcf	3,5	;RP0=0, select bank0
   826  00E1  1303               	bcf	3,6	;RP1=0, select bank0
   827  00E2  1E0C               	btfss	12,4	;volatile
   828  00E3  28E5               	goto	u2631
   829  00E4  28E6               	goto	u2630
   830  00E5                     u2631:
   831  00E5  28E8               	goto	l77
   832  00E6                     u2630:
   833  00E6                     l1950:
   834                           
   835                           ;Sereal2.c: 198:         if (PIR1bits.TXIF);Sereal2.c: 199:         {
   836  00E6  3064               	movlw	100
   837  00E7  0099               	movwf	25	;volatile
   838  00E8                     l77:	
   839                           ;Sereal2.c: 200:             TXREG = 101;
   840                           
   841                           
   842                           ;Sereal2.c: 201:         }
   843  00E8  300D               	movlw	13
   844  00E9  1283               	bcf	3,5	;RP0=0, select bank0
   845  00EA  1303               	bcf	3,6	;RP1=0, select bank0
   846  00EB  00A1               	movwf	??_MENU+1
   847  00EC  30FB               	movlw	251
   848  00ED  00A0               	movwf	??_MENU
   849  00EE                     u3617:
   850  00EE  0BA0               	decfsz	??_MENU,f
   851  00EF  28EE               	goto	u3617
   852  00F0  0BA1               	decfsz	??_MENU+1,f
   853  00F1  28EE               	goto	u3617
   854  00F2                     l1952:
   855                           
   856                           ;Sereal2.c: 202:         _delay((unsigned long)((5)*(8000000/4000.0)));
   857  00F2  1283               	bcf	3,5	;RP0=0, select bank0
   858  00F3  1303               	bcf	3,6	;RP1=0, select bank0
   859  00F4  1E0C               	btfss	12,4	;volatile
   860  00F5  28F7               	goto	u2641
   861  00F6  28F8               	goto	u2640
   862  00F7                     u2641:
   863  00F7  28FA               	goto	l78
   864  00F8                     u2640:
   865  00F8                     l1954:
   866                           
   867                           ;Sereal2.c: 203:         if (PIR1bits.TXIF);Sereal2.c: 204:         {
   868  00F8  3065               	movlw	101
   869  00F9  0099               	movwf	25	;volatile
   870  00FA                     l78:	
   871                           ;Sereal2.c: 205:             TXREG = 106;
   872                           
   873                           
   874                           ;Sereal2.c: 206:         }
   875  00FA  300D               	movlw	13
   876  00FB  1283               	bcf	3,5	;RP0=0, select bank0
   877  00FC  1303               	bcf	3,6	;RP1=0, select bank0
   878  00FD  00A1               	movwf	??_MENU+1
   879  00FE  30FB               	movlw	251
   880  00FF  00A0               	movwf	??_MENU
   881  0100                     u3627:
   882  0100  0BA0               	decfsz	??_MENU,f
   883  0101  2900               	goto	u3627
   884  0102  0BA1               	decfsz	??_MENU+1,f
   885  0103  2900               	goto	u3627
   886  0104                     l1956:
   887                           
   888                           ;Sereal2.c: 207:         _delay((unsigned long)((5)*(8000000/4000.0)));
   889  0104  1283               	bcf	3,5	;RP0=0, select bank0
   890  0105  1303               	bcf	3,6	;RP1=0, select bank0
   891  0106  1E0C               	btfss	12,4	;volatile
   892  0107  2909               	goto	u2651
   893  0108  290A               	goto	u2650
   894  0109                     u2651:
   895  0109  290C               	goto	l79
   896  010A                     u2650:
   897  010A                     l1958:
   898                           
   899                           ;Sereal2.c: 208:         if (PIR1bits.TXIF);Sereal2.c: 209:         {
   900  010A  3073               	movlw	115
   901  010B  0099               	movwf	25	;volatile
   902  010C                     l79:	
   903                           ;Sereal2.c: 210:             TXREG = 101;
   904                           
   905                           
   906                           ;Sereal2.c: 211:         }
   907  010C  300D               	movlw	13
   908  010D  1283               	bcf	3,5	;RP0=0, select bank0
   909  010E  1303               	bcf	3,6	;RP1=0, select bank0
   910  010F  00A1               	movwf	??_MENU+1
   911  0110  30FB               	movlw	251
   912  0111  00A0               	movwf	??_MENU
   913  0112                     u3637:
   914  0112  0BA0               	decfsz	??_MENU,f
   915  0113  2912               	goto	u3637
   916  0114  0BA1               	decfsz	??_MENU+1,f
   917  0115  2912               	goto	u3637
   918  0116                     l1960:
   919                           
   920                           ;Sereal2.c: 212:         _delay((unsigned long)((5)*(8000000/4000.0)));
   921  0116  1283               	bcf	3,5	;RP0=0, select bank0
   922  0117  1303               	bcf	3,6	;RP1=0, select bank0
   923  0118  1E0C               	btfss	12,4	;volatile
   924  0119  291B               	goto	u2661
   925  011A  291C               	goto	u2660
   926  011B                     u2661:
   927  011B  291E               	goto	l80
   928  011C                     u2660:
   929  011C                     l1962:
   930                           
   931                           ;Sereal2.c: 213:         if (PIR1bits.TXIF);Sereal2.c: 214:         {
   932  011C  3065               	movlw	101
   933  011D  0099               	movwf	25	;volatile
   934  011E                     l80:	
   935                           ;Sereal2.c: 215:             TXREG = 99;
   936                           
   937                           
   938                           ;Sereal2.c: 216:         }
   939  011E  300D               	movlw	13
   940  011F  1283               	bcf	3,5	;RP0=0, select bank0
   941  0120  1303               	bcf	3,6	;RP1=0, select bank0
   942  0121  00A1               	movwf	??_MENU+1
   943  0122  30FB               	movlw	251
   944  0123  00A0               	movwf	??_MENU
   945  0124                     u3647:
   946  0124  0BA0               	decfsz	??_MENU,f
   947  0125  2924               	goto	u3647
   948  0126  0BA1               	decfsz	??_MENU+1,f
   949  0127  2924               	goto	u3647
   950  0128                     l1964:
   951                           
   952                           ;Sereal2.c: 217:         _delay((unsigned long)((5)*(8000000/4000.0)));
   953  0128  1283               	bcf	3,5	;RP0=0, select bank0
   954  0129  1303               	bcf	3,6	;RP1=0, select bank0
   955  012A  1E0C               	btfss	12,4	;volatile
   956  012B  292D               	goto	u2671
   957  012C  292E               	goto	u2670
   958  012D                     u2671:
   959  012D  2930               	goto	l81
   960  012E                     u2670:
   961  012E                     l1966:
   962                           
   963                           ;Sereal2.c: 218:         if (PIR1bits.TXIF);Sereal2.c: 219:         {
   964  012E  3061               	movlw	97
   965  012F  0099               	movwf	25	;volatile
   966  0130                     l81:	
   967                           ;Sereal2.c: 220:             TXREG = 117;
   968                           
   969                           
   970                           ;Sereal2.c: 221:         }
   971  0130  300D               	movlw	13
   972  0131  1283               	bcf	3,5	;RP0=0, select bank0
   973  0132  1303               	bcf	3,6	;RP1=0, select bank0
   974  0133  00A1               	movwf	??_MENU+1
   975  0134  30FB               	movlw	251
   976  0135  00A0               	movwf	??_MENU
   977  0136                     u3657:
   978  0136  0BA0               	decfsz	??_MENU,f
   979  0137  2936               	goto	u3657
   980  0138  0BA1               	decfsz	??_MENU+1,f
   981  0139  2936               	goto	u3657
   982  013A                     l1968:
   983                           
   984                           ;Sereal2.c: 222:         _delay((unsigned long)((5)*(8000000/4000.0)));
   985  013A  1283               	bcf	3,5	;RP0=0, select bank0
   986  013B  1303               	bcf	3,6	;RP1=0, select bank0
   987  013C  1E0C               	btfss	12,4	;volatile
   988  013D  293F               	goto	u2681
   989  013E  2940               	goto	u2680
   990  013F                     u2681:
   991  013F  2942               	goto	l82
   992  0140                     u2680:
   993  0140                     l1970:
   994                           
   995                           ;Sereal2.c: 223:         if (PIR1bits.TXIF);Sereal2.c: 224:         {
   996  0140  3020               	movlw	32
   997  0141  0099               	movwf	25	;volatile
   998  0142                     l82:	
   999                           ;Sereal2.c: 225:             TXREG = 116;
  1000                           
  1001                           
  1002                           ;Sereal2.c: 226:         }
  1003  0142  300D               	movlw	13
  1004  0143  1283               	bcf	3,5	;RP0=0, select bank0
  1005  0144  1303               	bcf	3,6	;RP1=0, select bank0
  1006  0145  00A1               	movwf	??_MENU+1
  1007  0146  30FB               	movlw	251
  1008  0147  00A0               	movwf	??_MENU
  1009  0148                     u3667:
  1010  0148  0BA0               	decfsz	??_MENU,f
  1011  0149  2948               	goto	u3667
  1012  014A  0BA1               	decfsz	??_MENU+1,f
  1013  014B  2948               	goto	u3667
  1014  014C                     l1972:
  1015                           
  1016                           ;Sereal2.c: 227:         _delay((unsigned long)((5)*(8000000/4000.0)));
  1017  014C  1283               	bcf	3,5	;RP0=0, select bank0
  1018  014D  1303               	bcf	3,6	;RP1=0, select bank0
  1019  014E  1E0C               	btfss	12,4	;volatile
  1020  014F  2951               	goto	u2691
  1021  0150  2952               	goto	u2690
  1022  0151                     u2691:
  1023  0151  2954               	goto	l83
  1024  0152                     u2690:
  1025  0152                     l1974:
  1026                           
  1027                           ;Sereal2.c: 228:         if (PIR1bits.TXIF);Sereal2.c: 229:         {
  1028  0152  3065               	movlw	101
  1029  0153  0099               	movwf	25	;volatile
  1030  0154                     l83:	
  1031                           ;Sereal2.c: 230:             TXREG = 97;
  1032                           
  1033                           
  1034                           ;Sereal2.c: 231:         }
  1035  0154  300D               	movlw	13
  1036  0155  1283               	bcf	3,5	;RP0=0, select bank0
  1037  0156  1303               	bcf	3,6	;RP1=0, select bank0
  1038  0157  00A1               	movwf	??_MENU+1
  1039  0158  30FB               	movlw	251
  1040  0159  00A0               	movwf	??_MENU
  1041  015A                     u3677:
  1042  015A  0BA0               	decfsz	??_MENU,f
  1043  015B  295A               	goto	u3677
  1044  015C  0BA1               	decfsz	??_MENU+1,f
  1045  015D  295A               	goto	u3677
  1046  015E                     l1976:
  1047                           
  1048                           ;Sereal2.c: 232:         _delay((unsigned long)((5)*(8000000/4000.0)));
  1049  015E  1283               	bcf	3,5	;RP0=0, select bank0
  1050  015F  1303               	bcf	3,6	;RP1=0, select bank0
  1051  0160  1E0C               	btfss	12,4	;volatile
  1052  0161  2963               	goto	u2701
  1053  0162  2964               	goto	u2700
  1054  0163                     u2701:
  1055  0163  2966               	goto	l84
  1056  0164                     u2700:
  1057  0164                     l1978:
  1058                           
  1059                           ;Sereal2.c: 233:         if (PIR1bits.TXIF);Sereal2.c: 234:         {
  1060  0164  306A               	movlw	106
  1061  0165  0099               	movwf	25	;volatile
  1062  0166                     l84:	
  1063                           ;Sereal2.c: 235:             TXREG = 114;
  1064                           
  1065                           
  1066                           ;Sereal2.c: 236:         }
  1067  0166  300D               	movlw	13
  1068  0167  1283               	bcf	3,5	;RP0=0, select bank0
  1069  0168  1303               	bcf	3,6	;RP1=0, select bank0
  1070  0169  00A1               	movwf	??_MENU+1
  1071  016A  30FB               	movlw	251
  1072  016B  00A0               	movwf	??_MENU
  1073  016C                     u3687:
  1074  016C  0BA0               	decfsz	??_MENU,f
  1075  016D  296C               	goto	u3687
  1076  016E  0BA1               	decfsz	??_MENU+1,f
  1077  016F  296C               	goto	u3687
  1078  0170                     l1980:
  1079                           
  1080                           ;Sereal2.c: 237:         if (PIR1bits.TXIF)
  1081  0170  1283               	bcf	3,5	;RP0=0, select bank0
  1082  0171  1303               	bcf	3,6	;RP1=0, select bank0
  1083  0172  1E0C               	btfss	12,4	;volatile
  1084  0173  2975               	goto	u2711
  1085  0174  2976               	goto	u2710
  1086  0175                     u2711:
  1087  0175  2978               	goto	l85
  1088  0176                     u2710:
  1089  0176                     l1982:
  1090                           
  1091                           ;Sereal2.c: 238:         {;Sereal2.c: 239:             TXREG = 63;
  1092  0176  3065               	movlw	101
  1093  0177  0099               	movwf	25	;volatile
  1094  0178                     l85:	
  1095                           ;Sereal2.c: 240:         }
  1096                           
  1097                           
  1098                           ;Sereal2.c: 241: 
  1099  0178  300D               	movlw	13
  1100  0179  1283               	bcf	3,5	;RP0=0, select bank0
  1101  017A  1303               	bcf	3,6	;RP1=0, select bank0
  1102  017B  00A1               	movwf	??_MENU+1
  1103  017C  30FB               	movlw	251
  1104  017D  00A0               	movwf	??_MENU
  1105  017E                     u3697:
  1106  017E  0BA0               	decfsz	??_MENU,f
  1107  017F  297E               	goto	u3697
  1108  0180  0BA1               	decfsz	??_MENU+1,f
  1109  0181  297E               	goto	u3697
  1110  0182                     l1984:
  1111                           
  1112                           ;Sereal2.c: 242:         _delay((unsigned long)((5)*(8000000/4000.0)));
  1113  0182  1283               	bcf	3,5	;RP0=0, select bank0
  1114  0183  1303               	bcf	3,6	;RP1=0, select bank0
  1115  0184  1E0C               	btfss	12,4	;volatile
  1116  0185  2987               	goto	u2721
  1117  0186  2988               	goto	u2720
  1118  0187                     u2721:
  1119  0187  298A               	goto	l86
  1120  0188                     u2720:
  1121  0188                     l1986:
  1122                           
  1123                           ;Sereal2.c: 243:         if (PIR1bits.TXIF);Sereal2.c: 244:         {
  1124  0188  3063               	movlw	99
  1125  0189  0099               	movwf	25	;volatile
  1126  018A                     l86:	
  1127                           ;Sereal2.c: 245:             TXREG = 13;
  1128                           
  1129                           
  1130                           ;Sereal2.c: 246:         }
  1131  018A  300D               	movlw	13
  1132  018B  1283               	bcf	3,5	;RP0=0, select bank0
  1133  018C  1303               	bcf	3,6	;RP1=0, select bank0
  1134  018D  00A1               	movwf	??_MENU+1
  1135  018E  30FB               	movlw	251
  1136  018F  00A0               	movwf	??_MENU
  1137  0190                     u3707:
  1138  0190  0BA0               	decfsz	??_MENU,f
  1139  0191  2990               	goto	u3707
  1140  0192  0BA1               	decfsz	??_MENU+1,f
  1141  0193  2990               	goto	u3707
  1142  0194                     l1988:
  1143                           
  1144                           ;Sereal2.c: 247: 
  1145  0194  1283               	bcf	3,5	;RP0=0, select bank0
  1146  0195  1303               	bcf	3,6	;RP1=0, select bank0
  1147  0196  1E0C               	btfss	12,4	;volatile
  1148  0197  2999               	goto	u2731
  1149  0198  299A               	goto	u2730
  1150  0199                     u2731:
  1151  0199  299C               	goto	l87
  1152  019A                     u2730:
  1153  019A                     l1990:
  1154                           
  1155                           ;Sereal2.c: 248: ;Sereal2.c: 249:         _delay((unsigned long)((5)*(8000000/4000.0)));
  1156  019A  3075               	movlw	117
  1157  019B  0099               	movwf	25	;volatile
  1158  019C                     l87:	
  1159                           ;Sereal2.c: 250:         if (PIR1bits.TXIF)
  1160                           
  1161                           
  1162                           ;Sereal2.c: 251:         {
  1163  019C  300D               	movlw	13
  1164  019D  1283               	bcf	3,5	;RP0=0, select bank0
  1165  019E  1303               	bcf	3,6	;RP1=0, select bank0
  1166  019F  00A1               	movwf	??_MENU+1
  1167  01A0  30FB               	movlw	251
  1168  01A1  00A0               	movwf	??_MENU
  1169  01A2                     u3717:
  1170  01A2  0BA0               	decfsz	??_MENU,f
  1171  01A3  29A2               	goto	u3717
  1172  01A4  0BA1               	decfsz	??_MENU+1,f
  1173  01A5  29A2               	goto	u3717
  1174  01A6                     l1992:
  1175                           
  1176                           ;Sereal2.c: 252:             TXREG = 40;
  1177  01A6  1283               	bcf	3,5	;RP0=0, select bank0
  1178  01A7  1303               	bcf	3,6	;RP1=0, select bank0
  1179  01A8  1E0C               	btfss	12,4	;volatile
  1180  01A9  29AB               	goto	u2741
  1181  01AA  29AC               	goto	u2740
  1182  01AB                     u2741:
  1183  01AB  29AE               	goto	l88
  1184  01AC                     u2740:
  1185  01AC                     l1994:
  1186                           
  1187                           ;Sereal2.c: 253:         };Sereal2.c: 254:         _delay((unsigned long)((5)*(8000000/4
      +                          000.0)));
  1188  01AC  3074               	movlw	116
  1189  01AD  0099               	movwf	25	;volatile
  1190  01AE                     l88:	
  1191                           ;Sereal2.c: 255:         if (PIR1bits.TXIF)
  1192                           
  1193                           
  1194                           ;Sereal2.c: 256:         {
  1195  01AE  300D               	movlw	13
  1196  01AF  1283               	bcf	3,5	;RP0=0, select bank0
  1197  01B0  1303               	bcf	3,6	;RP1=0, select bank0
  1198  01B1  00A1               	movwf	??_MENU+1
  1199  01B2  30FB               	movlw	251
  1200  01B3  00A0               	movwf	??_MENU
  1201  01B4                     u3727:
  1202  01B4  0BA0               	decfsz	??_MENU,f
  1203  01B5  29B4               	goto	u3727
  1204  01B6  0BA1               	decfsz	??_MENU+1,f
  1205  01B7  29B4               	goto	u3727
  1206  01B8                     l1996:
  1207                           
  1208                           ;Sereal2.c: 257:             TXREG = 49;
  1209  01B8  1283               	bcf	3,5	;RP0=0, select bank0
  1210  01B9  1303               	bcf	3,6	;RP1=0, select bank0
  1211  01BA  1E0C               	btfss	12,4	;volatile
  1212  01BB  29BD               	goto	u2751
  1213  01BC  29BE               	goto	u2750
  1214  01BD                     u2751:
  1215  01BD  29C0               	goto	l89
  1216  01BE                     u2750:
  1217  01BE                     l1998:
  1218                           
  1219                           ;Sereal2.c: 258:         };Sereal2.c: 259:         _delay((unsigned long)((5)*(8000000/4
      +                          000.0)));
  1220  01BE  3061               	movlw	97
  1221  01BF  0099               	movwf	25	;volatile
  1222  01C0                     l89:	
  1223                           ;Sereal2.c: 260:         if (PIR1bits.TXIF)
  1224                           
  1225                           
  1226                           ;Sereal2.c: 261:         {
  1227  01C0  300D               	movlw	13
  1228  01C1  1283               	bcf	3,5	;RP0=0, select bank0
  1229  01C2  1303               	bcf	3,6	;RP1=0, select bank0
  1230  01C3  00A1               	movwf	??_MENU+1
  1231  01C4  30FB               	movlw	251
  1232  01C5  00A0               	movwf	??_MENU
  1233  01C6                     u3737:
  1234  01C6  0BA0               	decfsz	??_MENU,f
  1235  01C7  29C6               	goto	u3737
  1236  01C8  0BA1               	decfsz	??_MENU+1,f
  1237  01C9  29C6               	goto	u3737
  1238  01CA                     l2000:
  1239                           
  1240                           ;Sereal2.c: 262:             TXREG = 41;
  1241  01CA  1283               	bcf	3,5	;RP0=0, select bank0
  1242  01CB  1303               	bcf	3,6	;RP1=0, select bank0
  1243  01CC  1E0C               	btfss	12,4	;volatile
  1244  01CD  29CF               	goto	u2761
  1245  01CE  29D0               	goto	u2760
  1246  01CF                     u2761:
  1247  01CF  29D2               	goto	l2004
  1248  01D0                     u2760:
  1249  01D0                     l2002:
  1250                           
  1251                           ;Sereal2.c: 263:         };Sereal2.c: 264:         _delay((unsigned long)((5)*(8000000/4
      +                          000.0)));
  1252  01D0  3072               	movlw	114
  1253  01D1  0099               	movwf	25	;volatile
  1254  01D2                     l2004:
  1255                           
  1256                           ;Sereal2.c: 266:         {
  1257  01D2  1E0C               	btfss	12,4	;volatile
  1258  01D3  29D5               	goto	u2771
  1259  01D4  29D6               	goto	u2770
  1260  01D5                     u2771:
  1261  01D5  29D8               	goto	l91
  1262  01D6                     u2770:
  1263  01D6                     l2006:
  1264                           
  1265                           ;Sereal2.c: 267:             TXREG = 32;;Sereal2.c: 268:         }
  1266  01D6  303F               	movlw	63
  1267  01D7  0099               	movwf	25	;volatile
  1268  01D8                     l91:	
  1269                           ;Sereal2.c: 269:         _delay((unsigned long)((5)*(8000000/4000.0)));
  1270                           
  1271                           
  1272                           ;Sereal2.c: 271:         {
  1273  01D8  300D               	movlw	13
  1274  01D9  1283               	bcf	3,5	;RP0=0, select bank0
  1275  01DA  1303               	bcf	3,6	;RP1=0, select bank0
  1276  01DB  00A1               	movwf	??_MENU+1
  1277  01DC  30FB               	movlw	251
  1278  01DD  00A0               	movwf	??_MENU
  1279  01DE                     u3747:
  1280  01DE  0BA0               	decfsz	??_MENU,f
  1281  01DF  29DE               	goto	u3747
  1282  01E0  0BA1               	decfsz	??_MENU+1,f
  1283  01E1  29DE               	goto	u3747
  1284  01E2                     l2008:
  1285                           
  1286                           ;Sereal2.c: 272:             TXREG = 68;
  1287  01E2  1283               	bcf	3,5	;RP0=0, select bank0
  1288  01E3  1303               	bcf	3,6	;RP1=0, select bank0
  1289  01E4  1E0C               	btfss	12,4	;volatile
  1290  01E5  29E7               	goto	u2781
  1291  01E6  29E8               	goto	u2780
  1292  01E7                     u2781:
  1293  01E7  29EA               	goto	l92
  1294  01E8                     u2780:
  1295  01E8                     l2010:
  1296                           
  1297                           ;Sereal2.c: 273:         };Sereal2.c: 274:         _delay((unsigned long)((5)*(8000000/4
      +                          000.0)));
  1298  01E8  300D               	movlw	13
  1299  01E9  0099               	movwf	25	;volatile
  1300  01EA                     l92:	
  1301                           ;Sereal2.c: 275:         if (PIR1bits.TXIF)
  1302                           
  1303                           
  1304                           ;Sereal2.c: 278:         }
  1305  01EA  300D               	movlw	13
  1306  01EB  1283               	bcf	3,5	;RP0=0, select bank0
  1307  01EC  1303               	bcf	3,6	;RP1=0, select bank0
  1308  01ED  00A1               	movwf	??_MENU+1
  1309  01EE  30FB               	movlw	251
  1310  01EF  00A0               	movwf	??_MENU
  1311  01F0                     u3757:
  1312  01F0  0BA0               	decfsz	??_MENU,f
  1313  01F1  29F0               	goto	u3757
  1314  01F2  0BA1               	decfsz	??_MENU+1,f
  1315  01F3  29F0               	goto	u3757
  1316  01F4                     l2012:
  1317                           
  1318                           ;Sereal2.c: 279:         _delay((unsigned long)((5)*(8000000/4000.0)));
  1319  01F4  1283               	bcf	3,5	;RP0=0, select bank0
  1320  01F5  1303               	bcf	3,6	;RP1=0, select bank0
  1321  01F6  1E0C               	btfss	12,4	;volatile
  1322  01F7  29F9               	goto	u2791
  1323  01F8  29FA               	goto	u2790
  1324  01F9                     u2791:
  1325  01F9  29FC               	goto	l93
  1326  01FA                     u2790:
  1327  01FA                     l2014:
  1328                           
  1329                           ;Sereal2.c: 280:         if (PIR1bits.TXIF);Sereal2.c: 281:         {
  1330  01FA  3028               	movlw	40
  1331  01FB  0099               	movwf	25	;volatile
  1332  01FC                     l93:	
  1333                           ;Sereal2.c: 282:             TXREG = 115;
  1334                           
  1335                           
  1336                           ;Sereal2.c: 283:         }
  1337  01FC  300D               	movlw	13
  1338  01FD  1283               	bcf	3,5	;RP0=0, select bank0
  1339  01FE  1303               	bcf	3,6	;RP1=0, select bank0
  1340  01FF  00A1               	movwf	??_MENU+1
  1341  0200  30FB               	movlw	251
  1342  0201  00A0               	movwf	??_MENU
  1343  0202                     u3767:
  1344  0202  0BA0               	decfsz	??_MENU,f
  1345  0203  2A02               	goto	u3767
  1346  0204  0BA1               	decfsz	??_MENU+1,f
  1347  0205  2A02               	goto	u3767
  1348  0206                     l2016:
  1349                           
  1350                           ;Sereal2.c: 284:         _delay((unsigned long)((5)*(8000000/4000.0)));
  1351  0206  1283               	bcf	3,5	;RP0=0, select bank0
  1352  0207  1303               	bcf	3,6	;RP1=0, select bank0
  1353  0208  1E0C               	btfss	12,4	;volatile
  1354  0209  2A0B               	goto	u2801
  1355  020A  2A0C               	goto	u2800
  1356  020B                     u2801:
  1357  020B  2A0E               	goto	l94
  1358  020C                     u2800:
  1359  020C                     l2018:
  1360                           
  1361                           ;Sereal2.c: 285:         if (PIR1bits.TXIF);Sereal2.c: 286:         {
  1362  020C  3031               	movlw	49
  1363  020D  0099               	movwf	25	;volatile
  1364  020E                     l94:	
  1365                           ;Sereal2.c: 287:             TXREG = 112;
  1366                           
  1367                           
  1368                           ;Sereal2.c: 288:         }
  1369  020E  300D               	movlw	13
  1370  020F  1283               	bcf	3,5	;RP0=0, select bank0
  1371  0210  1303               	bcf	3,6	;RP1=0, select bank0
  1372  0211  00A1               	movwf	??_MENU+1
  1373  0212  30FB               	movlw	251
  1374  0213  00A0               	movwf	??_MENU
  1375  0214                     u3777:
  1376  0214  0BA0               	decfsz	??_MENU,f
  1377  0215  2A14               	goto	u3777
  1378  0216  0BA1               	decfsz	??_MENU+1,f
  1379  0217  2A14               	goto	u3777
  1380  0218                     l2020:
  1381                           
  1382                           ;Sereal2.c: 289:         _delay((unsigned long)((5)*(8000000/4000.0)));
  1383  0218  1283               	bcf	3,5	;RP0=0, select bank0
  1384  0219  1303               	bcf	3,6	;RP1=0, select bank0
  1385  021A  1E0C               	btfss	12,4	;volatile
  1386  021B  2A1D               	goto	u2811
  1387  021C  2A1E               	goto	u2810
  1388  021D                     u2811:
  1389  021D  2A20               	goto	l95
  1390  021E                     u2810:
  1391  021E                     l2022:
  1392                           
  1393                           ;Sereal2.c: 290:         if (PIR1bits.TXIF);Sereal2.c: 291:         {
  1394  021E  3029               	movlw	41
  1395  021F  0099               	movwf	25	;volatile
  1396  0220                     l95:	
  1397                           ;Sereal2.c: 292:             TXREG = 108;
  1398                           
  1399                           
  1400                           ;Sereal2.c: 293:         }
  1401  0220  300D               	movlw	13
  1402  0221  1283               	bcf	3,5	;RP0=0, select bank0
  1403  0222  1303               	bcf	3,6	;RP1=0, select bank0
  1404  0223  00A1               	movwf	??_MENU+1
  1405  0224  30FB               	movlw	251
  1406  0225  00A0               	movwf	??_MENU
  1407  0226                     u3787:
  1408  0226  0BA0               	decfsz	??_MENU,f
  1409  0227  2A26               	goto	u3787
  1410  0228  0BA1               	decfsz	??_MENU+1,f
  1411  0229  2A26               	goto	u3787
  1412  022A                     l2024:
  1413                           
  1414                           ;Sereal2.c: 294:         _delay((unsigned long)((5)*(8000000/4000.0)));
  1415  022A  1283               	bcf	3,5	;RP0=0, select bank0
  1416  022B  1303               	bcf	3,6	;RP1=0, select bank0
  1417  022C  1E0C               	btfss	12,4	;volatile
  1418  022D  2A2F               	goto	u2821
  1419  022E  2A30               	goto	u2820
  1420  022F                     u2821:
  1421  022F  2A32               	goto	l96
  1422  0230                     u2820:
  1423  0230                     l2026:
  1424                           
  1425                           ;Sereal2.c: 295:         if (PIR1bits.TXIF);Sereal2.c: 296:         {
  1426  0230  3020               	movlw	32
  1427  0231  0099               	movwf	25	;volatile
  1428  0232                     l96:	
  1429                           ;Sereal2.c: 297:             TXREG = 101;
  1430                           
  1431                           
  1432                           ;Sereal2.c: 298:         }
  1433  0232  300D               	movlw	13
  1434  0233  1283               	bcf	3,5	;RP0=0, select bank0
  1435  0234  1303               	bcf	3,6	;RP1=0, select bank0
  1436  0235  00A1               	movwf	??_MENU+1
  1437  0236  30FB               	movlw	251
  1438  0237  00A0               	movwf	??_MENU
  1439  0238                     u3797:
  1440  0238  0BA0               	decfsz	??_MENU,f
  1441  0239  2A38               	goto	u3797
  1442  023A  0BA1               	decfsz	??_MENU+1,f
  1443  023B  2A38               	goto	u3797
  1444  023C                     l2028:
  1445                           
  1446                           ;Sereal2.c: 299:         _delay((unsigned long)((5)*(8000000/4000.0)));
  1447  023C  1283               	bcf	3,5	;RP0=0, select bank0
  1448  023D  1303               	bcf	3,6	;RP1=0, select bank0
  1449  023E  1E0C               	btfss	12,4	;volatile
  1450  023F  2A41               	goto	u2831
  1451  0240  2A42               	goto	u2830
  1452  0241                     u2831:
  1453  0241  2A44               	goto	l97
  1454  0242                     u2830:
  1455  0242                     l2030:
  1456                           
  1457                           ;Sereal2.c: 300:         if (PIR1bits.TXIF);Sereal2.c: 301:         {
  1458  0242  3044               	movlw	68
  1459  0243  0099               	movwf	25	;volatile
  1460  0244                     l97:	
  1461                           ;Sereal2.c: 302:             TXREG = 103;
  1462                           
  1463                           
  1464                           ;Sereal2.c: 303:         }
  1465  0244  300D               	movlw	13
  1466  0245  1283               	bcf	3,5	;RP0=0, select bank0
  1467  0246  1303               	bcf	3,6	;RP1=0, select bank0
  1468  0247  00A1               	movwf	??_MENU+1
  1469  0248  30FB               	movlw	251
  1470  0249  00A0               	movwf	??_MENU
  1471  024A                     u3807:
  1472  024A  0BA0               	decfsz	??_MENU,f
  1473  024B  2A4A               	goto	u3807
  1474  024C  0BA1               	decfsz	??_MENU+1,f
  1475  024D  2A4A               	goto	u3807
  1476  024E                     l2032:
  1477                           
  1478                           ;Sereal2.c: 304:         _delay((unsigned long)((5)*(8000000/4000.0)));
  1479  024E  1283               	bcf	3,5	;RP0=0, select bank0
  1480  024F  1303               	bcf	3,6	;RP1=0, select bank0
  1481  0250  1E0C               	btfss	12,4	;volatile
  1482  0251  2A53               	goto	u2841
  1483  0252  2A54               	goto	u2840
  1484  0253                     u2841:
  1485  0253  2A56               	goto	l98
  1486  0254                     u2840:
  1487  0254                     l2034:
  1488                           
  1489                           ;Sereal2.c: 305:         if (PIR1bits.TXIF);Sereal2.c: 306:         {
  1490  0254  3065               	movlw	101
  1491  0255  0099               	movwf	25	;volatile
  1492  0256                     l98:	
  1493                           ;Sereal2.c: 307:             TXREG = 97;
  1494                           
  1495                           
  1496                           ;Sereal2.c: 308:         }
  1497  0256  300D               	movlw	13
  1498  0257  1283               	bcf	3,5	;RP0=0, select bank0
  1499  0258  1303               	bcf	3,6	;RP1=0, select bank0
  1500  0259  00A1               	movwf	??_MENU+1
  1501  025A  30FB               	movlw	251
  1502  025B  00A0               	movwf	??_MENU
  1503  025C                     u3817:
  1504  025C  0BA0               	decfsz	??_MENU,f
  1505  025D  2A5C               	goto	u3817
  1506  025E  0BA1               	decfsz	??_MENU+1,f
  1507  025F  2A5C               	goto	u3817
  1508  0260                     l2036:
  1509                           
  1510                           ;Sereal2.c: 309:         _delay((unsigned long)((5)*(8000000/4000.0)));
  1511  0260  1283               	bcf	3,5	;RP0=0, select bank0
  1512  0261  1303               	bcf	3,6	;RP1=0, select bank0
  1513  0262  1E0C               	btfss	12,4	;volatile
  1514  0263  2A65               	goto	u2851
  1515  0264  2A66               	goto	u2850
  1516  0265                     u2851:
  1517  0265  2A68               	goto	l99
  1518  0266                     u2850:
  1519  0266                     l2038:
  1520                           
  1521                           ;Sereal2.c: 310:         if (PIR1bits.TXIF);Sereal2.c: 311:         {
  1522  0266  3073               	movlw	115
  1523  0267  0099               	movwf	25	;volatile
  1524  0268                     l99:	
  1525                           ;Sereal2.c: 312:             TXREG = 114;
  1526                           
  1527                           
  1528                           ;Sereal2.c: 313:         }
  1529  0268  300D               	movlw	13
  1530  0269  1283               	bcf	3,5	;RP0=0, select bank0
  1531  026A  1303               	bcf	3,6	;RP1=0, select bank0
  1532  026B  00A1               	movwf	??_MENU+1
  1533  026C  30FB               	movlw	251
  1534  026D  00A0               	movwf	??_MENU
  1535  026E                     u3827:
  1536  026E  0BA0               	decfsz	??_MENU,f
  1537  026F  2A6E               	goto	u3827
  1538  0270  0BA1               	decfsz	??_MENU+1,f
  1539  0271  2A6E               	goto	u3827
  1540  0272                     l2040:
  1541                           
  1542                           ;Sereal2.c: 314:         _delay((unsigned long)((5)*(8000000/4000.0)));
  1543  0272  1283               	bcf	3,5	;RP0=0, select bank0
  1544  0273  1303               	bcf	3,6	;RP1=0, select bank0
  1545  0274  1E0C               	btfss	12,4	;volatile
  1546  0275  2A77               	goto	u2861
  1547  0276  2A78               	goto	u2860
  1548  0277                     u2861:
  1549  0277  2A7A               	goto	l100
  1550  0278                     u2860:
  1551  0278                     l2042:
  1552                           
  1553                           ;Sereal2.c: 315:         if (PIR1bits.TXIF);Sereal2.c: 316:         {
  1554  0278  3070               	movlw	112
  1555  0279  0099               	movwf	25	;volatile
  1556  027A                     l100:	
  1557                           ;Sereal2.c: 317:             TXREG = 32;
  1558                           
  1559                           
  1560                           ;Sereal2.c: 318:         }
  1561  027A  300D               	movlw	13
  1562  027B  1283               	bcf	3,5	;RP0=0, select bank0
  1563  027C  1303               	bcf	3,6	;RP1=0, select bank0
  1564  027D  00A1               	movwf	??_MENU+1
  1565  027E  30FB               	movlw	251
  1566  027F  00A0               	movwf	??_MENU
  1567  0280                     u3837:
  1568  0280  0BA0               	decfsz	??_MENU,f
  1569  0281  2A80               	goto	u3837
  1570  0282  0BA1               	decfsz	??_MENU+1,f
  1571  0283  2A80               	goto	u3837
  1572  0284                     l2044:
  1573                           
  1574                           ;Sereal2.c: 319:         _delay((unsigned long)((5)*(8000000/4000.0)));
  1575  0284  1283               	bcf	3,5	;RP0=0, select bank0
  1576  0285  1303               	bcf	3,6	;RP1=0, select bank0
  1577  0286  1E0C               	btfss	12,4	;volatile
  1578  0287  2A89               	goto	u2871
  1579  0288  2A8A               	goto	u2870
  1580  0289                     u2871:
  1581  0289  2A8C               	goto	l101
  1582  028A                     u2870:
  1583  028A                     l2046:
  1584                           
  1585                           ;Sereal2.c: 320:         if (PIR1bits.TXIF);Sereal2.c: 321:         {
  1586  028A  306C               	movlw	108
  1587  028B  0099               	movwf	25	;volatile
  1588  028C                     l101:	
  1589                           ;Sereal2.c: 322:             TXREG = 99;
  1590                           
  1591                           
  1592                           ;Sereal2.c: 323:         }
  1593  028C  300D               	movlw	13
  1594  028D  1283               	bcf	3,5	;RP0=0, select bank0
  1595  028E  1303               	bcf	3,6	;RP1=0, select bank0
  1596  028F  00A1               	movwf	??_MENU+1
  1597  0290  30FB               	movlw	251
  1598  0291  00A0               	movwf	??_MENU
  1599  0292                     u3847:
  1600  0292  0BA0               	decfsz	??_MENU,f
  1601  0293  2A92               	goto	u3847
  1602  0294  0BA1               	decfsz	??_MENU+1,f
  1603  0295  2A92               	goto	u3847
  1604  0296                     l2048:
  1605                           
  1606                           ;Sereal2.c: 324:         _delay((unsigned long)((5)*(8000000/4000.0)));
  1607  0296  1283               	bcf	3,5	;RP0=0, select bank0
  1608  0297  1303               	bcf	3,6	;RP1=0, select bank0
  1609  0298  1E0C               	btfss	12,4	;volatile
  1610  0299  2A9B               	goto	u2881
  1611  029A  2A9C               	goto	u2880
  1612  029B                     u2881:
  1613  029B  2A9E               	goto	l102
  1614  029C                     u2880:
  1615  029C                     l2050:
  1616                           
  1617                           ;Sereal2.c: 325:         if (PIR1bits.TXIF);Sereal2.c: 326:         {
  1618  029C  3065               	movlw	101
  1619  029D  0099               	movwf	25	;volatile
  1620  029E                     l102:	
  1621                           ;Sereal2.c: 327:             TXREG = 97;
  1622                           
  1623                           
  1624                           ;Sereal2.c: 328:         }
  1625  029E  300D               	movlw	13
  1626  029F  1283               	bcf	3,5	;RP0=0, select bank0
  1627  02A0  1303               	bcf	3,6	;RP1=0, select bank0
  1628  02A1  00A1               	movwf	??_MENU+1
  1629  02A2  30FB               	movlw	251
  1630  02A3  00A0               	movwf	??_MENU
  1631  02A4                     u3857:
  1632  02A4  0BA0               	decfsz	??_MENU,f
  1633  02A5  2AA4               	goto	u3857
  1634  02A6  0BA1               	decfsz	??_MENU+1,f
  1635  02A7  2AA4               	goto	u3857
  1636  02A8                     l2052:
  1637                           
  1638                           ;Sereal2.c: 329:         _delay((unsigned long)((5)*(8000000/4000.0)));
  1639  02A8  1283               	bcf	3,5	;RP0=0, select bank0
  1640  02A9  1303               	bcf	3,6	;RP1=0, select bank0
  1641  02AA  1E0C               	btfss	12,4	;volatile
  1642  02AB  2AAD               	goto	u2891
  1643  02AC  2AAE               	goto	u2890
  1644  02AD                     u2891:
  1645  02AD  2AB0               	goto	l103
  1646  02AE                     u2890:
  1647  02AE                     l2054:
  1648                           
  1649                           ;Sereal2.c: 330:         if (PIR1bits.TXIF);Sereal2.c: 331:         {
  1650  02AE  3067               	movlw	103
  1651  02AF  0099               	movwf	25	;volatile
  1652  02B0                     l103:	
  1653                           ;Sereal2.c: 332:             TXREG = 100;
  1654                           
  1655                           
  1656                           ;Sereal2.c: 333:         }
  1657  02B0  300D               	movlw	13
  1658  02B1  1283               	bcf	3,5	;RP0=0, select bank0
  1659  02B2  1303               	bcf	3,6	;RP1=0, select bank0
  1660  02B3  00A1               	movwf	??_MENU+1
  1661  02B4  30FB               	movlw	251
  1662  02B5  00A0               	movwf	??_MENU
  1663  02B6                     u3867:
  1664  02B6  0BA0               	decfsz	??_MENU,f
  1665  02B7  2AB6               	goto	u3867
  1666  02B8  0BA1               	decfsz	??_MENU+1,f
  1667  02B9  2AB6               	goto	u3867
  1668  02BA                     l2056:
  1669                           
  1670                           ;Sereal2.c: 334:         _delay((unsigned long)((5)*(8000000/4000.0)));
  1671  02BA  1283               	bcf	3,5	;RP0=0, select bank0
  1672  02BB  1303               	bcf	3,6	;RP1=0, select bank0
  1673  02BC  1E0C               	btfss	12,4	;volatile
  1674  02BD  2ABF               	goto	u2901
  1675  02BE  2AC0               	goto	u2900
  1676  02BF                     u2901:
  1677  02BF  2AC2               	goto	l104
  1678  02C0                     u2900:
  1679  02C0                     l2058:
  1680                           
  1681                           ;Sereal2.c: 335:         if (PIR1bits.TXIF);Sereal2.c: 336:         {
  1682  02C0  3061               	movlw	97
  1683  02C1  0099               	movwf	25	;volatile
  1684  02C2                     l104:	
  1685                           ;Sereal2.c: 337:             TXREG = 101;
  1686                           
  1687                           
  1688                           ;Sereal2.c: 338:         }
  1689  02C2  300D               	movlw	13
  1690  02C3  1283               	bcf	3,5	;RP0=0, select bank0
  1691  02C4  1303               	bcf	3,6	;RP1=0, select bank0
  1692  02C5  00A1               	movwf	??_MENU+1
  1693  02C6  30FB               	movlw	251
  1694  02C7  00A0               	movwf	??_MENU
  1695  02C8                     u3877:
  1696  02C8  0BA0               	decfsz	??_MENU,f
  1697  02C9  2AC8               	goto	u3877
  1698  02CA  0BA1               	decfsz	??_MENU+1,f
  1699  02CB  2AC8               	goto	u3877
  1700  02CC                     l2060:
  1701                           
  1702                           ;Sereal2.c: 339:         _delay((unsigned long)((5)*(8000000/4000.0)));
  1703  02CC  1283               	bcf	3,5	;RP0=0, select bank0
  1704  02CD  1303               	bcf	3,6	;RP1=0, select bank0
  1705  02CE  1E0C               	btfss	12,4	;volatile
  1706  02CF  2AD1               	goto	u2911
  1707  02D0  2AD2               	goto	u2910
  1708  02D1                     u2911:
  1709  02D1  2AD4               	goto	l105
  1710  02D2                     u2910:
  1711  02D2                     l2062:
  1712                           
  1713                           ;Sereal2.c: 340:         if (PIR1bits.TXIF);Sereal2.c: 341:         {
  1714  02D2  3072               	movlw	114
  1715  02D3  0099               	movwf	25	;volatile
  1716  02D4                     l105:	
  1717                           ;Sereal2.c: 342:             TXREG = 110;
  1718                           
  1719                           
  1720                           ;Sereal2.c: 343:         }
  1721  02D4  300D               	movlw	13
  1722  02D5  1283               	bcf	3,5	;RP0=0, select bank0
  1723  02D6  1303               	bcf	3,6	;RP1=0, select bank0
  1724  02D7  00A1               	movwf	??_MENU+1
  1725  02D8  30FB               	movlw	251
  1726  02D9  00A0               	movwf	??_MENU
  1727  02DA                     u3887:
  1728  02DA  0BA0               	decfsz	??_MENU,f
  1729  02DB  2ADA               	goto	u3887
  1730  02DC  0BA1               	decfsz	??_MENU+1,f
  1731  02DD  2ADA               	goto	u3887
  1732  02DE                     l2064:
  1733                           
  1734                           ;Sereal2.c: 344:         _delay((unsigned long)((5)*(8000000/4000.0)));
  1735  02DE  1283               	bcf	3,5	;RP0=0, select bank0
  1736  02DF  1303               	bcf	3,6	;RP1=0, select bank0
  1737  02E0  1E0C               	btfss	12,4	;volatile
  1738  02E1  2AE3               	goto	u2921
  1739  02E2  2AE4               	goto	u2920
  1740  02E3                     u2921:
  1741  02E3  2AE6               	goto	l106
  1742  02E4                     u2920:
  1743  02E4                     l2066:
  1744                           
  1745                           ;Sereal2.c: 345:         if (PIR1bits.TXIF);Sereal2.c: 346:         {
  1746  02E4  3020               	movlw	32
  1747  02E5  0099               	movwf	25	;volatile
  1748  02E6                     l106:	
  1749                           ;Sereal2.c: 347:             TXREG = 97;
  1750                           
  1751                           
  1752                           ;Sereal2.c: 348:         }
  1753  02E6  300D               	movlw	13
  1754  02E7  1283               	bcf	3,5	;RP0=0, select bank0
  1755  02E8  1303               	bcf	3,6	;RP1=0, select bank0
  1756  02E9  00A1               	movwf	??_MENU+1
  1757  02EA  30FB               	movlw	251
  1758  02EB  00A0               	movwf	??_MENU
  1759  02EC                     u3897:
  1760  02EC  0BA0               	decfsz	??_MENU,f
  1761  02ED  2AEC               	goto	u3897
  1762  02EE  0BA1               	decfsz	??_MENU+1,f
  1763  02EF  2AEC               	goto	u3897
  1764  02F0                     l2068:
  1765                           
  1766                           ;Sereal2.c: 349:         _delay((unsigned long)((5)*(8000000/4000.0)));
  1767  02F0  1283               	bcf	3,5	;RP0=0, select bank0
  1768  02F1  1303               	bcf	3,6	;RP1=0, select bank0
  1769  02F2  1E0C               	btfss	12,4	;volatile
  1770  02F3  2AF5               	goto	u2931
  1771  02F4  2AF6               	goto	u2930
  1772  02F5                     u2931:
  1773  02F5  2AF8               	goto	l107
  1774  02F6                     u2930:
  1775  02F6                     l2070:
  1776                           
  1777                           ;Sereal2.c: 350:         if (PIR1bits.TXIF);Sereal2.c: 351:         {
  1778  02F6  3063               	movlw	99
  1779  02F7  0099               	movwf	25	;volatile
  1780  02F8                     l107:	
  1781                           ;Sereal2.c: 352:             TXREG = 32;
  1782                           
  1783                           
  1784                           ;Sereal2.c: 353:         }
  1785  02F8  300D               	movlw	13
  1786  02F9  1283               	bcf	3,5	;RP0=0, select bank0
  1787  02FA  1303               	bcf	3,6	;RP1=0, select bank0
  1788  02FB  00A1               	movwf	??_MENU+1
  1789  02FC  30FB               	movlw	251
  1790  02FD  00A0               	movwf	??_MENU
  1791  02FE                     u3907:
  1792  02FE  0BA0               	decfsz	??_MENU,f
  1793  02FF  2AFE               	goto	u3907
  1794  0300  0BA1               	decfsz	??_MENU+1,f
  1795  0301  2AFE               	goto	u3907
  1796  0302                     l2072:
  1797                           
  1798                           ;Sereal2.c: 354:         _delay((unsigned long)((5)*(8000000/4000.0)));
  1799  0302  1283               	bcf	3,5	;RP0=0, select bank0
  1800  0303  1303               	bcf	3,6	;RP1=0, select bank0
  1801  0304  1E0C               	btfss	12,4	;volatile
  1802  0305  2B07               	goto	u2941
  1803  0306  2B08               	goto	u2940
  1804  0307                     u2941:
  1805  0307  2B0A               	goto	l108
  1806  0308                     u2940:
  1807  0308                     l2074:
  1808                           
  1809                           ;Sereal2.c: 355:         if (PIR1bits.TXIF);Sereal2.c: 356:         {
  1810  0308  3061               	movlw	97
  1811  0309  0099               	movwf	25	;volatile
  1812  030A                     l108:	
  1813                           ;Sereal2.c: 357:             TXREG = 100;
  1814                           
  1815                           
  1816                           ;Sereal2.c: 358:         }
  1817  030A  300D               	movlw	13
  1818  030B  1283               	bcf	3,5	;RP0=0, select bank0
  1819  030C  1303               	bcf	3,6	;RP1=0, select bank0
  1820  030D  00A1               	movwf	??_MENU+1
  1821  030E  30FB               	movlw	251
  1822  030F  00A0               	movwf	??_MENU
  1823  0310                     u3917:
  1824  0310  0BA0               	decfsz	??_MENU,f
  1825  0311  2B10               	goto	u3917
  1826  0312  0BA1               	decfsz	??_MENU+1,f
  1827  0313  2B10               	goto	u3917
  1828  0314                     l2076:
  1829                           
  1830                           ;Sereal2.c: 359:         _delay((unsigned long)((5)*(8000000/4000.0)));
  1831  0314  1283               	bcf	3,5	;RP0=0, select bank0
  1832  0315  1303               	bcf	3,6	;RP1=0, select bank0
  1833  0316  1E0C               	btfss	12,4	;volatile
  1834  0317  2B19               	goto	u2951
  1835  0318  2B1A               	goto	u2950
  1836  0319                     u2951:
  1837  0319  2B1C               	goto	l109
  1838  031A                     u2950:
  1839  031A                     l2078:
  1840                           
  1841                           ;Sereal2.c: 360:         if (PIR1bits.TXIF);Sereal2.c: 361:         {
  1842  031A  3064               	movlw	100
  1843  031B  0099               	movwf	25	;volatile
  1844  031C                     l109:	
  1845                           ;Sereal2.c: 362:             TXREG = 101;
  1846                           
  1847                           
  1848                           ;Sereal2.c: 363:         }
  1849  031C  300D               	movlw	13
  1850  031D  1283               	bcf	3,5	;RP0=0, select bank0
  1851  031E  1303               	bcf	3,6	;RP1=0, select bank0
  1852  031F  00A1               	movwf	??_MENU+1
  1853  0320  30FB               	movlw	251
  1854  0321  00A0               	movwf	??_MENU
  1855  0322                     u3927:
  1856  0322  0BA0               	decfsz	??_MENU,f
  1857  0323  2B22               	goto	u3927
  1858  0324  0BA1               	decfsz	??_MENU+1,f
  1859  0325  2B22               	goto	u3927
  1860  0326                     l2080:
  1861                           
  1862                           ;Sereal2.c: 364:         _delay((unsigned long)((5)*(8000000/4000.0)));
  1863  0326  1283               	bcf	3,5	;RP0=0, select bank0
  1864  0327  1303               	bcf	3,6	;RP1=0, select bank0
  1865  0328  1E0C               	btfss	12,4	;volatile
  1866  0329  2B2B               	goto	u2961
  1867  032A  2B2C               	goto	u2960
  1868  032B                     u2961:
  1869  032B  2B2E               	goto	l110
  1870  032C                     u2960:
  1871  032C                     l2082:
  1872                           
  1873                           ;Sereal2.c: 365:         if (PIR1bits.TXIF);Sereal2.c: 366:         {
  1874  032C  3065               	movlw	101
  1875  032D  0099               	movwf	25	;volatile
  1876  032E                     l110:	
  1877                           ;Sereal2.c: 367:             TXREG = 32;
  1878                           
  1879                           
  1880                           ;Sereal2.c: 368:         }
  1881  032E  300D               	movlw	13
  1882  032F  1283               	bcf	3,5	;RP0=0, select bank0
  1883  0330  1303               	bcf	3,6	;RP1=0, select bank0
  1884  0331  00A1               	movwf	??_MENU+1
  1885  0332  30FB               	movlw	251
  1886  0333  00A0               	movwf	??_MENU
  1887  0334                     u3937:
  1888  0334  0BA0               	decfsz	??_MENU,f
  1889  0335  2B34               	goto	u3937
  1890  0336  0BA1               	decfsz	??_MENU+1,f
  1891  0337  2B34               	goto	u3937
  1892  0338                     l2084:
  1893                           
  1894                           ;Sereal2.c: 369:         _delay((unsigned long)((5)*(8000000/4000.0)));
  1895  0338  1283               	bcf	3,5	;RP0=0, select bank0
  1896  0339  1303               	bcf	3,6	;RP1=0, select bank0
  1897  033A  1E0C               	btfss	12,4	;volatile
  1898  033B  2B3D               	goto	u2971
  1899  033C  2B3E               	goto	u2970
  1900  033D                     u2971:
  1901  033D  2B40               	goto	l111
  1902  033E                     u2970:
  1903  033E                     l2086:
  1904                           
  1905                           ;Sereal2.c: 370:         if (PIR1bits.TXIF);Sereal2.c: 371:         {
  1906  033E  306E               	movlw	110
  1907  033F  0099               	movwf	25	;volatile
  1908  0340                     l111:	
  1909                           ;Sereal2.c: 372:             TXREG = 99;
  1910                           
  1911                           
  1912                           ;Sereal2.c: 373:         }
  1913  0340  300D               	movlw	13
  1914  0341  1283               	bcf	3,5	;RP0=0, select bank0
  1915  0342  1303               	bcf	3,6	;RP1=0, select bank0
  1916  0343  00A1               	movwf	??_MENU+1
  1917  0344  30FB               	movlw	251
  1918  0345  00A0               	movwf	??_MENU
  1919  0346                     u3947:
  1920  0346  0BA0               	decfsz	??_MENU,f
  1921  0347  2B46               	goto	u3947
  1922  0348  0BA1               	decfsz	??_MENU+1,f
  1923  0349  2B46               	goto	u3947
  1924  034A                     l2088:
  1925                           
  1926                           ;Sereal2.c: 374:         _delay((unsigned long)((5)*(8000000/4000.0)));
  1927  034A  1283               	bcf	3,5	;RP0=0, select bank0
  1928  034B  1303               	bcf	3,6	;RP1=0, select bank0
  1929  034C  1E0C               	btfss	12,4	;volatile
  1930  034D  2B4F               	goto	u2981
  1931  034E  2B50               	goto	u2980
  1932  034F                     u2981:
  1933  034F  2B52               	goto	l112
  1934  0350                     u2980:
  1935  0350                     l2090:
  1936                           
  1937                           ;Sereal2.c: 375:         if (PIR1bits.TXIF);Sereal2.c: 376:         {
  1938  0350  3061               	movlw	97
  1939  0351  0099               	movwf	25	;volatile
  1940  0352                     l112:	
  1941                           ;Sereal2.c: 377:             TXREG = 97;
  1942                           
  1943                           
  1944                           ;Sereal2.c: 378:         }
  1945  0352  300D               	movlw	13
  1946  0353  1283               	bcf	3,5	;RP0=0, select bank0
  1947  0354  1303               	bcf	3,6	;RP1=0, select bank0
  1948  0355  00A1               	movwf	??_MENU+1
  1949  0356  30FB               	movlw	251
  1950  0357  00A0               	movwf	??_MENU
  1951  0358                     u3957:
  1952  0358  0BA0               	decfsz	??_MENU,f
  1953  0359  2B58               	goto	u3957
  1954  035A  0BA1               	decfsz	??_MENU+1,f
  1955  035B  2B58               	goto	u3957
  1956  035C                     l2092:
  1957                           
  1958                           ;Sereal2.c: 379:         _delay((unsigned long)((5)*(8000000/4000.0)));
  1959  035C  1283               	bcf	3,5	;RP0=0, select bank0
  1960  035D  1303               	bcf	3,6	;RP1=0, select bank0
  1961  035E  1E0C               	btfss	12,4	;volatile
  1962  035F  2B61               	goto	u2991
  1963  0360  2B62               	goto	u2990
  1964  0361                     u2991:
  1965  0361  2B64               	goto	l113
  1966  0362                     u2990:
  1967  0362                     l2094:
  1968                           
  1969                           ;Sereal2.c: 380:         if (PIR1bits.TXIF);Sereal2.c: 381:         {
  1970  0362  3020               	movlw	32
  1971  0363  0099               	movwf	25	;volatile
  1972  0364                     l113:	
  1973                           ;Sereal2.c: 382:             TXREG = 114;
  1974                           
  1975                           
  1976                           ;Sereal2.c: 383:         }
  1977  0364  300D               	movlw	13
  1978  0365  1283               	bcf	3,5	;RP0=0, select bank0
  1979  0366  1303               	bcf	3,6	;RP1=0, select bank0
  1980  0367  00A1               	movwf	??_MENU+1
  1981  0368  30FB               	movlw	251
  1982  0369  00A0               	movwf	??_MENU
  1983  036A                     u3967:
  1984  036A  0BA0               	decfsz	??_MENU,f
  1985  036B  2B6A               	goto	u3967
  1986  036C  0BA1               	decfsz	??_MENU+1,f
  1987  036D  2B6A               	goto	u3967
  1988  036E                     l2096:
  1989                           
  1990                           ;Sereal2.c: 384:         _delay((unsigned long)((5)*(8000000/4000.0)));
  1991  036E  1283               	bcf	3,5	;RP0=0, select bank0
  1992  036F  1303               	bcf	3,6	;RP1=0, select bank0
  1993  0370  1E0C               	btfss	12,4	;volatile
  1994  0371  2B73               	goto	u3001
  1995  0372  2B74               	goto	u3000
  1996  0373                     u3001:
  1997  0373  2B76               	goto	l114
  1998  0374                     u3000:
  1999  0374                     l2098:
  2000                           
  2001                           ;Sereal2.c: 385:         if (PIR1bits.TXIF);Sereal2.c: 386:         {
  2002  0374  3064               	movlw	100
  2003  0375  0099               	movwf	25	;volatile
  2004  0376                     l114:	
  2005                           ;Sereal2.c: 387:             TXREG = 97;
  2006                           
  2007                           
  2008                           ;Sereal2.c: 388:         }
  2009  0376  300D               	movlw	13
  2010  0377  1283               	bcf	3,5	;RP0=0, select bank0
  2011  0378  1303               	bcf	3,6	;RP1=0, select bank0
  2012  0379  00A1               	movwf	??_MENU+1
  2013  037A  30FB               	movlw	251
  2014  037B  00A0               	movwf	??_MENU
  2015  037C                     u3977:
  2016  037C  0BA0               	decfsz	??_MENU,f
  2017  037D  2B7C               	goto	u3977
  2018  037E  0BA1               	decfsz	??_MENU+1,f
  2019  037F  2B7C               	goto	u3977
  2020  0380                     l2100:
  2021                           
  2022                           ;Sereal2.c: 389:         _delay((unsigned long)((5)*(8000000/4000.0)));
  2023  0380  1283               	bcf	3,5	;RP0=0, select bank0
  2024  0381  1303               	bcf	3,6	;RP1=0, select bank0
  2025  0382  1E0C               	btfss	12,4	;volatile
  2026  0383  2B85               	goto	u3011
  2027  0384  2B86               	goto	u3010
  2028  0385                     u3011:
  2029  0385  2B88               	goto	l115
  2030  0386                     u3010:
  2031  0386                     l2102:
  2032                           
  2033                           ;Sereal2.c: 390:         if (PIR1bits.TXIF);Sereal2.c: 391:         {
  2034  0386  3065               	movlw	101
  2035  0387  0099               	movwf	25	;volatile
  2036  0388                     l115:	
  2037                           ;Sereal2.c: 392:             TXREG = 99;
  2038                           
  2039                           
  2040                           ;Sereal2.c: 393:         }
  2041  0388  300D               	movlw	13
  2042  0389  1283               	bcf	3,5	;RP0=0, select bank0
  2043  038A  1303               	bcf	3,6	;RP1=0, select bank0
  2044  038B  00A1               	movwf	??_MENU+1
  2045  038C  30FB               	movlw	251
  2046  038D  00A0               	movwf	??_MENU
  2047  038E                     u3987:
  2048  038E  0BA0               	decfsz	??_MENU,f
  2049  038F  2B8E               	goto	u3987
  2050  0390  0BA1               	decfsz	??_MENU+1,f
  2051  0391  2B8E               	goto	u3987
  2052  0392                     l2104:
  2053                           
  2054                           ;Sereal2.c: 394:         _delay((unsigned long)((5)*(8000000/4000.0)));
  2055  0392  1283               	bcf	3,5	;RP0=0, select bank0
  2056  0393  1303               	bcf	3,6	;RP1=0, select bank0
  2057  0394  1E0C               	btfss	12,4	;volatile
  2058  0395  2B97               	goto	u3021
  2059  0396  2B98               	goto	u3020
  2060  0397                     u3021:
  2061  0397  2B9A               	goto	l116
  2062  0398                     u3020:
  2063  0398                     l2106:
  2064                           
  2065                           ;Sereal2.c: 395:         if (PIR1bits.TXIF);Sereal2.c: 396:         {
  2066  0398  3020               	movlw	32
  2067  0399  0099               	movwf	25	;volatile
  2068  039A                     l116:	
  2069                           ;Sereal2.c: 397:             TXREG = 116;
  2070                           
  2071                           
  2072                           ;Sereal2.c: 398:         }
  2073  039A  300D               	movlw	13
  2074  039B  1283               	bcf	3,5	;RP0=0, select bank0
  2075  039C  1303               	bcf	3,6	;RP1=0, select bank0
  2076  039D  00A1               	movwf	??_MENU+1
  2077  039E  30FB               	movlw	251
  2078  039F  00A0               	movwf	??_MENU
  2079  03A0                     u3997:
  2080  03A0  0BA0               	decfsz	??_MENU,f
  2081  03A1  2BA0               	goto	u3997
  2082  03A2  0BA1               	decfsz	??_MENU+1,f
  2083  03A3  2BA0               	goto	u3997
  2084  03A4                     l2108:
  2085                           
  2086                           ;Sereal2.c: 399:         _delay((unsigned long)((5)*(8000000/4000.0)));
  2087  03A4  1283               	bcf	3,5	;RP0=0, select bank0
  2088  03A5  1303               	bcf	3,6	;RP1=0, select bank0
  2089  03A6  1E0C               	btfss	12,4	;volatile
  2090  03A7  2BA9               	goto	u3031
  2091  03A8  2BAA               	goto	u3030
  2092  03A9                     u3031:
  2093  03A9  2BAC               	goto	l117
  2094  03AA                     u3030:
  2095  03AA                     l2110:
  2096                           
  2097                           ;Sereal2.c: 400:         if (PIR1bits.TXIF);Sereal2.c: 401:         {
  2098  03AA  3063               	movlw	99
  2099  03AB  0099               	movwf	25	;volatile
  2100  03AC                     l117:	
  2101                           ;Sereal2.c: 402:             TXREG = 101;
  2102                           
  2103                           
  2104                           ;Sereal2.c: 403:         }
  2105  03AC  300D               	movlw	13
  2106  03AD  1283               	bcf	3,5	;RP0=0, select bank0
  2107  03AE  1303               	bcf	3,6	;RP1=0, select bank0
  2108  03AF  00A1               	movwf	??_MENU+1
  2109  03B0  30FB               	movlw	251
  2110  03B1  00A0               	movwf	??_MENU
  2111  03B2                     u4007:
  2112  03B2  0BA0               	decfsz	??_MENU,f
  2113  03B3  2BB2               	goto	u4007
  2114  03B4  0BA1               	decfsz	??_MENU+1,f
  2115  03B5  2BB2               	goto	u4007
  2116  03B6                     l2112:
  2117                           
  2118                           ;Sereal2.c: 404:         _delay((unsigned long)((5)*(8000000/4000.0)));
  2119  03B6  1283               	bcf	3,5	;RP0=0, select bank0
  2120  03B7  1303               	bcf	3,6	;RP1=0, select bank0
  2121  03B8  1E0C               	btfss	12,4	;volatile
  2122  03B9  2BBB               	goto	u3041
  2123  03BA  2BBC               	goto	u3040
  2124  03BB                     u3041:
  2125  03BB  2BBE               	goto	l118
  2126  03BC                     u3040:
  2127  03BC                     l2114:
  2128                           
  2129                           ;Sereal2.c: 405:         if (PIR1bits.TXIF);Sereal2.c: 406:         {
  2130  03BC  3061               	movlw	97
  2131  03BD  0099               	movwf	25	;volatile
  2132  03BE                     l118:	
  2133                           ;Sereal2.c: 407:             TXREG = 114;
  2134                           
  2135                           
  2136                           ;Sereal2.c: 408:         }
  2137  03BE  300D               	movlw	13
  2138  03BF  1283               	bcf	3,5	;RP0=0, select bank0
  2139  03C0  1303               	bcf	3,6	;RP1=0, select bank0
  2140  03C1  00A1               	movwf	??_MENU+1
  2141  03C2  30FB               	movlw	251
  2142  03C3  00A0               	movwf	??_MENU
  2143  03C4                     u4017:
  2144  03C4  0BA0               	decfsz	??_MENU,f
  2145  03C5  2BC4               	goto	u4017
  2146  03C6  0BA1               	decfsz	??_MENU+1,f
  2147  03C7  2BC4               	goto	u4017
  2148  03C8                     l2116:
  2149                           
  2150                           ;Sereal2.c: 409:         _delay((unsigned long)((5)*(8000000/4000.0)));
  2151  03C8  1283               	bcf	3,5	;RP0=0, select bank0
  2152  03C9  1303               	bcf	3,6	;RP1=0, select bank0
  2153  03CA  1E0C               	btfss	12,4	;volatile
  2154  03CB  2BCD               	goto	u3051
  2155  03CC  2BCE               	goto	u3050
  2156  03CD                     u3051:
  2157  03CD  2BD0               	goto	l119
  2158  03CE                     u3050:
  2159  03CE                     l2118:
  2160                           
  2161                           ;Sereal2.c: 410:         if (PIR1bits.TXIF);Sereal2.c: 411:         {
  2162  03CE  3072               	movlw	114
  2163  03CF  0099               	movwf	25	;volatile
  2164  03D0                     l119:	
  2165                           ;Sereal2.c: 412:             TXREG = 101;
  2166                           
  2167                           
  2168                           ;Sereal2.c: 413:         }
  2169  03D0  300D               	movlw	13
  2170  03D1  1283               	bcf	3,5	;RP0=0, select bank0
  2171  03D2  1303               	bcf	3,6	;RP1=0, select bank0
  2172  03D3  00A1               	movwf	??_MENU+1
  2173  03D4  30FB               	movlw	251
  2174  03D5  00A0               	movwf	??_MENU
  2175  03D6                     u4027:
  2176  03D6  0BA0               	decfsz	??_MENU,f
  2177  03D7  2BD6               	goto	u4027
  2178  03D8  0BA1               	decfsz	??_MENU+1,f
  2179  03D9  2BD6               	goto	u4027
  2180  03DA                     l2120:
  2181                           
  2182                           ;Sereal2.c: 414:         _delay((unsigned long)((5)*(8000000/4000.0)));
  2183  03DA  1283               	bcf	3,5	;RP0=0, select bank0
  2184  03DB  1303               	bcf	3,6	;RP1=0, select bank0
  2185  03DC  1E0C               	btfss	12,4	;volatile
  2186  03DD  2BDF               	goto	u3061
  2187  03DE  2BE0               	goto	u3060
  2188  03DF                     u3061:
  2189  03DF  2BE2               	goto	l120
  2190  03E0                     u3060:
  2191  03E0                     l2122:
  2192                           
  2193                           ;Sereal2.c: 415:         if (PIR1bits.TXIF);Sereal2.c: 416:         {
  2194  03E0  3061               	movlw	97
  2195  03E1  0099               	movwf	25	;volatile
  2196  03E2                     l120:	
  2197                           ;Sereal2.c: 417:             TXREG = 115;
  2198                           
  2199                           
  2200                           ;Sereal2.c: 418:         }
  2201  03E2  300D               	movlw	13
  2202  03E3  1283               	bcf	3,5	;RP0=0, select bank0
  2203  03E4  1303               	bcf	3,6	;RP1=0, select bank0
  2204  03E5  00A1               	movwf	??_MENU+1
  2205  03E6  30FB               	movlw	251
  2206  03E7  00A0               	movwf	??_MENU
  2207  03E8                     u4037:
  2208  03E8  0BA0               	decfsz	??_MENU,f
  2209  03E9  2BE8               	goto	u4037
  2210  03EA  0BA1               	decfsz	??_MENU+1,f
  2211  03EB  2BE8               	goto	u4037
  2212  03EC                     l2124:
  2213                           
  2214                           ;Sereal2.c: 419: 
  2215  03EC  1283               	bcf	3,5	;RP0=0, select bank0
  2216  03ED  1303               	bcf	3,6	;RP1=0, select bank0
  2217  03EE  1E0C               	btfss	12,4	;volatile
  2218  03EF  2BF1               	goto	u3071
  2219  03F0  2BF2               	goto	u3070
  2220  03F1                     u3071:
  2221  03F1  2BF4               	goto	l121
  2222  03F2                     u3070:
  2223  03F2                     l2126:
  2224                           
  2225                           ;Sereal2.c: 420:         _delay((unsigned long)((5)*(8000000/4000.0)));;Sereal2.c: 421: 
      +                                  if (PIR1bits.TXIF)
  2226  03F2  3063               	movlw	99
  2227  03F3  0099               	movwf	25	;volatile
  2228  03F4                     l121:	
  2229                           ;Sereal2.c: 422:         {
  2230                           
  2231                           
  2232                           ;Sereal2.c: 423:             TXREG = 13;
  2233  03F4  300D               	movlw	13
  2234  03F5  1283               	bcf	3,5	;RP0=0, select bank0
  2235  03F6  1303               	bcf	3,6	;RP1=0, select bank0
  2236  03F7  00A1               	movwf	??_MENU+1
  2237  03F8  30FB               	movlw	251
  2238  03F9  00A0               	movwf	??_MENU
  2239  03FA                     u4047:
  2240  03FA  0BA0               	decfsz	??_MENU,f
  2241  03FB  2BFA               	goto	u4047
  2242  03FC  0BA1               	decfsz	??_MENU+1,f
  2243  03FD  2BFA               	goto	u4047
  2244  03FE                     l2128:
  2245                           
  2246                           ;Sereal2.c: 424:         }
  2247  03FE  1283               	bcf	3,5	;RP0=0, select bank0
  2248  03FF  1303               	bcf	3,6	;RP1=0, select bank0
  2249  0400  1E0C               	btfss	12,4	;volatile
  2250  0401  2C03               	goto	u3081
  2251  0402  2C04               	goto	u3080
  2252  0403                     u3081:
  2253  0403  2C06               	goto	l122
  2254  0404                     u3080:
  2255  0404                     l2130:
  2256                           
  2257                           ;Sereal2.c: 425: ;Sereal2.c: 426:         _delay((unsigned long)((5)*(8000000/4000.0)));
  2258  0404  3074               	movlw	116
  2259  0405  0099               	movwf	25	;volatile
  2260  0406                     l122:	
  2261                           ;Sereal2.c: 427:         if (PIR1bits.TXIF)
  2262                           
  2263                           
  2264                           ;Sereal2.c: 428:         {
  2265  0406  300D               	movlw	13
  2266  0407  1283               	bcf	3,5	;RP0=0, select bank0
  2267  0408  1303               	bcf	3,6	;RP1=0, select bank0
  2268  0409  00A1               	movwf	??_MENU+1
  2269  040A  30FB               	movlw	251
  2270  040B  00A0               	movwf	??_MENU
  2271  040C                     u4057:
  2272  040C  0BA0               	decfsz	??_MENU,f
  2273  040D  2C0C               	goto	u4057
  2274  040E  0BA1               	decfsz	??_MENU+1,f
  2275  040F  2C0C               	goto	u4057
  2276  0410                     l2132:
  2277                           
  2278                           ;Sereal2.c: 429:             TXREG = 40;
  2279  0410  1283               	bcf	3,5	;RP0=0, select bank0
  2280  0411  1303               	bcf	3,6	;RP1=0, select bank0
  2281  0412  1E0C               	btfss	12,4	;volatile
  2282  0413  2C15               	goto	u3091
  2283  0414  2C16               	goto	u3090
  2284  0415                     u3091:
  2285  0415  2C18               	goto	l123
  2286  0416                     u3090:
  2287  0416                     l2134:
  2288                           
  2289                           ;Sereal2.c: 430:         };Sereal2.c: 431:         _delay((unsigned long)((5)*(8000000/4
      +                          000.0)));
  2290  0416  3065               	movlw	101
  2291  0417  0099               	movwf	25	;volatile
  2292  0418                     l123:	
  2293                           ;Sereal2.c: 432:         if (PIR1bits.TXIF)
  2294                           
  2295                           
  2296                           ;Sereal2.c: 433:         {
  2297  0418  300D               	movlw	13
  2298  0419  1283               	bcf	3,5	;RP0=0, select bank0
  2299  041A  1303               	bcf	3,6	;RP1=0, select bank0
  2300  041B  00A1               	movwf	??_MENU+1
  2301  041C  30FB               	movlw	251
  2302  041D  00A0               	movwf	??_MENU
  2303  041E                     u4067:
  2304  041E  0BA0               	decfsz	??_MENU,f
  2305  041F  2C1E               	goto	u4067
  2306  0420  0BA1               	decfsz	??_MENU+1,f
  2307  0421  2C1E               	goto	u4067
  2308  0422                     l2136:
  2309                           
  2310                           ;Sereal2.c: 434:             TXREG = 50;
  2311  0422  1283               	bcf	3,5	;RP0=0, select bank0
  2312  0423  1303               	bcf	3,6	;RP1=0, select bank0
  2313  0424  1E0C               	btfss	12,4	;volatile
  2314  0425  2C27               	goto	u3101
  2315  0426  2C28               	goto	u3100
  2316  0427                     u3101:
  2317  0427  2C2A               	goto	l124
  2318  0428                     u3100:
  2319  0428                     l2138:
  2320                           
  2321                           ;Sereal2.c: 435:         };Sereal2.c: 436:         _delay((unsigned long)((5)*(8000000/4
      +                          000.0)));
  2322  0428  3072               	movlw	114
  2323  0429  0099               	movwf	25	;volatile
  2324  042A                     l124:	
  2325                           ;Sereal2.c: 437:         if (PIR1bits.TXIF)
  2326                           
  2327                           
  2328                           ;Sereal2.c: 438:         {
  2329  042A  300D               	movlw	13
  2330  042B  1283               	bcf	3,5	;RP0=0, select bank0
  2331  042C  1303               	bcf	3,6	;RP1=0, select bank0
  2332  042D  00A1               	movwf	??_MENU+1
  2333  042E  30FB               	movlw	251
  2334  042F  00A0               	movwf	??_MENU
  2335  0430                     u4077:
  2336  0430  0BA0               	decfsz	??_MENU,f
  2337  0431  2C30               	goto	u4077
  2338  0432  0BA1               	decfsz	??_MENU+1,f
  2339  0433  2C30               	goto	u4077
  2340  0434                     l2140:
  2341                           
  2342                           ;Sereal2.c: 439:             TXREG = 41;
  2343  0434  1283               	bcf	3,5	;RP0=0, select bank0
  2344  0435  1303               	bcf	3,6	;RP1=0, select bank0
  2345  0436  1E0C               	btfss	12,4	;volatile
  2346  0437  2C39               	goto	u3111
  2347  0438  2C3A               	goto	u3110
  2348  0439                     u3111:
  2349  0439  2C3C               	goto	l125
  2350  043A                     u3110:
  2351  043A                     l2142:
  2352                           
  2353                           ;Sereal2.c: 440:         };Sereal2.c: 441:         _delay((unsigned long)((5)*(8000000/4
      +                          000.0)));
  2354  043A  3065               	movlw	101
  2355  043B  0099               	movwf	25	;volatile
  2356  043C                     l125:	
  2357                           ;Sereal2.c: 442:         if (PIR1bits.TXIF)
  2358                           
  2359                           
  2360                           ;Sereal2.c: 443:         {
  2361  043C  300D               	movlw	13
  2362  043D  1283               	bcf	3,5	;RP0=0, select bank0
  2363  043E  1303               	bcf	3,6	;RP1=0, select bank0
  2364  043F  00A1               	movwf	??_MENU+1
  2365  0440  30FB               	movlw	251
  2366  0441  00A0               	movwf	??_MENU
  2367  0442                     u4087:
  2368  0442  0BA0               	decfsz	??_MENU,f
  2369  0443  2C42               	goto	u4087
  2370  0444  0BA1               	decfsz	??_MENU+1,f
  2371  0445  2C42               	goto	u4087
  2372  0446                     l2144:
  2373                           
  2374                           ;Sereal2.c: 444:             TXREG = 32;
  2375  0446  1283               	bcf	3,5	;RP0=0, select bank0
  2376  0447  1303               	bcf	3,6	;RP1=0, select bank0
  2377  0448  1E0C               	btfss	12,4	;volatile
  2378  0449  2C4B               	goto	u3121
  2379  044A  2C4C               	goto	u3120
  2380  044B                     u3121:
  2381  044B  2C4E               	goto	l126
  2382  044C                     u3120:
  2383  044C                     l2146:
  2384                           
  2385                           ;Sereal2.c: 445:         };Sereal2.c: 446:         _delay((unsigned long)((5)*(8000000/4
      +                          000.0)));
  2386  044C  3073               	movlw	115
  2387  044D  0099               	movwf	25	;volatile
  2388  044E                     l126:	
  2389                           ;Sereal2.c: 447:         if (PIR1bits.TXIF)
  2390                           
  2391                           
  2392                           ;Sereal2.c: 449:             TXREG = 67;
  2393  044E  300D               	movlw	13
  2394  044F  1283               	bcf	3,5	;RP0=0, select bank0
  2395  0450  1303               	bcf	3,6	;RP1=0, select bank0
  2396  0451  00A1               	movwf	??_MENU+1
  2397  0452  30FB               	movlw	251
  2398  0453  00A0               	movwf	??_MENU
  2399  0454                     u4097:
  2400  0454  0BA0               	decfsz	??_MENU,f
  2401  0455  2C54               	goto	u4097
  2402  0456  0BA1               	decfsz	??_MENU+1,f
  2403  0457  2C54               	goto	u4097
  2404  0458                     l2148:
  2405                           
  2406                           ;Sereal2.c: 450:         }
  2407  0458  1283               	bcf	3,5	;RP0=0, select bank0
  2408  0459  1303               	bcf	3,6	;RP1=0, select bank0
  2409  045A  1E0C               	btfss	12,4	;volatile
  2410  045B  2C5D               	goto	u3131
  2411  045C  2C5E               	goto	u3130
  2412  045D                     u3131:
  2413  045D  2C60               	goto	l127
  2414  045E                     u3130:
  2415  045E                     l2150:
  2416                           
  2417                           ;Sereal2.c: 451:         _delay((unsigned long)((5)*(8000000/4000.0)));;Sereal2.c: 452: 
      +                                  if (PIR1bits.TXIF)
  2418  045E  300D               	movlw	13
  2419  045F  0099               	movwf	25	;volatile
  2420  0460                     l127:	
  2421                           ;Sereal2.c: 453:         {
  2422                           
  2423                           
  2424                           ;Sereal2.c: 455:         }
  2425  0460  300D               	movlw	13
  2426  0461  1283               	bcf	3,5	;RP0=0, select bank0
  2427  0462  1303               	bcf	3,6	;RP1=0, select bank0
  2428  0463  00A1               	movwf	??_MENU+1
  2429  0464  30FB               	movlw	251
  2430  0465  00A0               	movwf	??_MENU
  2431  0466                     u4107:
  2432  0466  0BA0               	decfsz	??_MENU,f
  2433  0467  2C66               	goto	u4107
  2434  0468  0BA1               	decfsz	??_MENU+1,f
  2435  0469  2C66               	goto	u4107
  2436  046A                     l2152:
  2437                           
  2438                           ;Sereal2.c: 456:         _delay((unsigned long)((5)*(8000000/4000.0)));
  2439  046A  1283               	bcf	3,5	;RP0=0, select bank0
  2440  046B  1303               	bcf	3,6	;RP1=0, select bank0
  2441  046C  1E0C               	btfss	12,4	;volatile
  2442  046D  2C6F               	goto	u3141
  2443  046E  2C70               	goto	u3140
  2444  046F                     u3141:
  2445  046F  2C72               	goto	l128
  2446  0470                     u3140:
  2447  0470                     l2154:
  2448                           
  2449                           ;Sereal2.c: 457:         if (PIR1bits.TXIF);Sereal2.c: 458:         {
  2450  0470  3028               	movlw	40
  2451  0471  0099               	movwf	25	;volatile
  2452  0472                     l128:	
  2453                           ;Sereal2.c: 459:             TXREG = 109;
  2454                           
  2455                           
  2456                           ;Sereal2.c: 460:         }
  2457  0472  300D               	movlw	13
  2458  0473  1283               	bcf	3,5	;RP0=0, select bank0
  2459  0474  1303               	bcf	3,6	;RP1=0, select bank0
  2460  0475  00A1               	movwf	??_MENU+1
  2461  0476  30FB               	movlw	251
  2462  0477  00A0               	movwf	??_MENU
  2463  0478                     u4117:
  2464  0478  0BA0               	decfsz	??_MENU,f
  2465  0479  2C78               	goto	u4117
  2466  047A  0BA1               	decfsz	??_MENU+1,f
  2467  047B  2C78               	goto	u4117
  2468  047C                     l2156:
  2469                           
  2470                           ;Sereal2.c: 461:         _delay((unsigned long)((5)*(8000000/4000.0)));
  2471  047C  1283               	bcf	3,5	;RP0=0, select bank0
  2472  047D  1303               	bcf	3,6	;RP1=0, select bank0
  2473  047E  1E0C               	btfss	12,4	;volatile
  2474  047F  2C81               	goto	u3151
  2475  0480  2C82               	goto	u3150
  2476  0481                     u3151:
  2477  0481  2C84               	goto	l129
  2478  0482                     u3150:
  2479  0482                     l2158:
  2480                           
  2481                           ;Sereal2.c: 462:         if (PIR1bits.TXIF);Sereal2.c: 463:         {
  2482  0482  3032               	movlw	50
  2483  0483  0099               	movwf	25	;volatile
  2484  0484                     l129:	
  2485                           ;Sereal2.c: 464:             TXREG = 98;
  2486                           
  2487                           
  2488                           ;Sereal2.c: 465:         }
  2489  0484  300D               	movlw	13
  2490  0485  1283               	bcf	3,5	;RP0=0, select bank0
  2491  0486  1303               	bcf	3,6	;RP1=0, select bank0
  2492  0487  00A1               	movwf	??_MENU+1
  2493  0488  30FB               	movlw	251
  2494  0489  00A0               	movwf	??_MENU
  2495  048A                     u4127:
  2496  048A  0BA0               	decfsz	??_MENU,f
  2497  048B  2C8A               	goto	u4127
  2498  048C  0BA1               	decfsz	??_MENU+1,f
  2499  048D  2C8A               	goto	u4127
  2500  048E                     l2160:
  2501                           
  2502                           ;Sereal2.c: 466:         _delay((unsigned long)((5)*(8000000/4000.0)));
  2503  048E  1283               	bcf	3,5	;RP0=0, select bank0
  2504  048F  1303               	bcf	3,6	;RP1=0, select bank0
  2505  0490  1E0C               	btfss	12,4	;volatile
  2506  0491  2C93               	goto	u3161
  2507  0492  2C94               	goto	u3160
  2508  0493                     u3161:
  2509  0493  2C96               	goto	l130
  2510  0494                     u3160:
  2511  0494                     l2162:
  2512                           
  2513                           ;Sereal2.c: 467:         if (PIR1bits.TXIF);Sereal2.c: 468:         {
  2514  0494  3029               	movlw	41
  2515  0495  0099               	movwf	25	;volatile
  2516  0496                     l130:	
  2517                           ;Sereal2.c: 469:             TXREG = 105;
  2518                           
  2519                           
  2520                           ;Sereal2.c: 470:         }
  2521  0496  300D               	movlw	13
  2522  0497  1283               	bcf	3,5	;RP0=0, select bank0
  2523  0498  1303               	bcf	3,6	;RP1=0, select bank0
  2524  0499  00A1               	movwf	??_MENU+1
  2525  049A  30FB               	movlw	251
  2526  049B  00A0               	movwf	??_MENU
  2527  049C                     u4137:
  2528  049C  0BA0               	decfsz	??_MENU,f
  2529  049D  2C9C               	goto	u4137
  2530  049E  0BA1               	decfsz	??_MENU+1,f
  2531  049F  2C9C               	goto	u4137
  2532  04A0                     l2164:
  2533                           
  2534                           ;Sereal2.c: 471:         _delay((unsigned long)((5)*(8000000/4000.0)));
  2535  04A0  1283               	bcf	3,5	;RP0=0, select bank0
  2536  04A1  1303               	bcf	3,6	;RP1=0, select bank0
  2537  04A2  1E0C               	btfss	12,4	;volatile
  2538  04A3  2CA5               	goto	u3171
  2539  04A4  2CA6               	goto	u3170
  2540  04A5                     u3171:
  2541  04A5  2CA8               	goto	l131
  2542  04A6                     u3170:
  2543  04A6                     l2166:
  2544                           
  2545                           ;Sereal2.c: 472:         if (PIR1bits.TXIF);Sereal2.c: 473:         {
  2546  04A6  3020               	movlw	32
  2547  04A7  0099               	movwf	25	;volatile
  2548  04A8                     l131:	
  2549                           ;Sereal2.c: 474:             TXREG = 97;
  2550                           
  2551                           
  2552                           ;Sereal2.c: 475:         }
  2553  04A8  300D               	movlw	13
  2554  04A9  1283               	bcf	3,5	;RP0=0, select bank0
  2555  04AA  1303               	bcf	3,6	;RP1=0, select bank0
  2556  04AB  00A1               	movwf	??_MENU+1
  2557  04AC  30FB               	movlw	251
  2558  04AD  00A0               	movwf	??_MENU
  2559  04AE                     u4147:
  2560  04AE  0BA0               	decfsz	??_MENU,f
  2561  04AF  2CAE               	goto	u4147
  2562  04B0  0BA1               	decfsz	??_MENU+1,f
  2563  04B1  2CAE               	goto	u4147
  2564  04B2                     l2168:
  2565                           
  2566                           ;Sereal2.c: 476:         _delay((unsigned long)((5)*(8000000/4000.0)));
  2567  04B2  1283               	bcf	3,5	;RP0=0, select bank0
  2568  04B3  1303               	bcf	3,6	;RP1=0, select bank0
  2569  04B4  1E0C               	btfss	12,4	;volatile
  2570  04B5  2CB7               	goto	u3181
  2571  04B6  2CB8               	goto	u3180
  2572  04B7                     u3181:
  2573  04B7  2CBA               	goto	l132
  2574  04B8                     u3180:
  2575  04B8                     l2170:
  2576                           
  2577                           ;Sereal2.c: 477:         if (PIR1bits.TXIF);Sereal2.c: 478:         {
  2578  04B8  3043               	movlw	67
  2579  04B9  0099               	movwf	25	;volatile
  2580  04BA                     l132:	
  2581                           ;Sereal2.c: 479:             TXREG = 114;
  2582                           
  2583                           
  2584                           ;Sereal2.c: 480:         }
  2585  04BA  300D               	movlw	13
  2586  04BB  1283               	bcf	3,5	;RP0=0, select bank0
  2587  04BC  1303               	bcf	3,6	;RP1=0, select bank0
  2588  04BD  00A1               	movwf	??_MENU+1
  2589  04BE  30FB               	movlw	251
  2590  04BF  00A0               	movwf	??_MENU
  2591  04C0                     u4157:
  2592  04C0  0BA0               	decfsz	??_MENU,f
  2593  04C1  2CC0               	goto	u4157
  2594  04C2  0BA1               	decfsz	??_MENU+1,f
  2595  04C3  2CC0               	goto	u4157
  2596  04C4                     l2172:
  2597                           
  2598                           ;Sereal2.c: 481:         _delay((unsigned long)((5)*(8000000/4000.0)));
  2599  04C4  1283               	bcf	3,5	;RP0=0, select bank0
  2600  04C5  1303               	bcf	3,6	;RP1=0, select bank0
  2601  04C6  1E0C               	btfss	12,4	;volatile
  2602  04C7  2CC9               	goto	u3191
  2603  04C8  2CCA               	goto	u3190
  2604  04C9                     u3191:
  2605  04C9  2CCC               	goto	l133
  2606  04CA                     u3190:
  2607  04CA                     l2174:
  2608                           
  2609                           ;Sereal2.c: 482:         if (PIR1bits.TXIF);Sereal2.c: 483:         {
  2610  04CA  3061               	movlw	97
  2611  04CB  0099               	movwf	25	;volatile
  2612  04CC                     l133:	
  2613                           ;Sereal2.c: 484:             TXREG = 32;
  2614                           
  2615                           
  2616                           ;Sereal2.c: 485:         }
  2617  04CC  300D               	movlw	13
  2618  04CD  1283               	bcf	3,5	;RP0=0, select bank0
  2619  04CE  1303               	bcf	3,6	;RP1=0, select bank0
  2620  04CF  00A1               	movwf	??_MENU+1
  2621  04D0  30FB               	movlw	251
  2622  04D1  00A0               	movwf	??_MENU
  2623  04D2                     u4167:
  2624  04D2  0BA0               	decfsz	??_MENU,f
  2625  04D3  2CD2               	goto	u4167
  2626  04D4  0BA1               	decfsz	??_MENU+1,f
  2627  04D5  2CD2               	goto	u4167
  2628  04D6                     l2176:
  2629                           
  2630                           ;Sereal2.c: 486:         _delay((unsigned long)((5)*(8000000/4000.0)));
  2631  04D6  1283               	bcf	3,5	;RP0=0, select bank0
  2632  04D7  1303               	bcf	3,6	;RP1=0, select bank0
  2633  04D8  1E0C               	btfss	12,4	;volatile
  2634  04D9  2CDB               	goto	u3201
  2635  04DA  2CDC               	goto	u3200
  2636  04DB                     u3201:
  2637  04DB  2CDE               	goto	l134
  2638  04DC                     u3200:
  2639  04DC                     l2178:
  2640                           
  2641                           ;Sereal2.c: 487:         if (PIR1bits.TXIF);Sereal2.c: 488:         {
  2642  04DC  306D               	movlw	109
  2643  04DD  0099               	movwf	25	;volatile
  2644  04DE                     l134:	
  2645                           ;Sereal2.c: 489:             TXREG = 80;
  2646                           
  2647                           
  2648                           ;Sereal2.c: 490:         }
  2649  04DE  300D               	movlw	13
  2650  04DF  1283               	bcf	3,5	;RP0=0, select bank0
  2651  04E0  1303               	bcf	3,6	;RP1=0, select bank0
  2652  04E1  00A1               	movwf	??_MENU+1
  2653  04E2  30FB               	movlw	251
  2654  04E3  00A0               	movwf	??_MENU
  2655  04E4                     u4177:
  2656  04E4  0BA0               	decfsz	??_MENU,f
  2657  04E5  2CE4               	goto	u4177
  2658  04E6  0BA1               	decfsz	??_MENU+1,f
  2659  04E7  2CE4               	goto	u4177
  2660  04E8                     l2180:
  2661                           
  2662                           ;Sereal2.c: 491:         _delay((unsigned long)((5)*(8000000/4000.0)));
  2663  04E8  1283               	bcf	3,5	;RP0=0, select bank0
  2664  04E9  1303               	bcf	3,6	;RP1=0, select bank0
  2665  04EA  1E0C               	btfss	12,4	;volatile
  2666  04EB  2CED               	goto	u3211
  2667  04EC  2CEE               	goto	u3210
  2668  04ED                     u3211:
  2669  04ED  2CF0               	goto	l135
  2670  04EE                     u3210:
  2671  04EE                     l2182:
  2672                           
  2673                           ;Sereal2.c: 492:         if (PIR1bits.TXIF);Sereal2.c: 493:         {
  2674  04EE  3062               	movlw	98
  2675  04EF  0099               	movwf	25	;volatile
  2676  04F0                     l135:	
  2677                           ;Sereal2.c: 494:             TXREG = 79;
  2678                           
  2679                           
  2680                           ;Sereal2.c: 495:         }
  2681  04F0  300D               	movlw	13
  2682  04F1  1283               	bcf	3,5	;RP0=0, select bank0
  2683  04F2  1303               	bcf	3,6	;RP1=0, select bank0
  2684  04F3  00A1               	movwf	??_MENU+1
  2685  04F4  30FB               	movlw	251
  2686  04F5  00A0               	movwf	??_MENU
  2687  04F6                     u4187:
  2688  04F6  0BA0               	decfsz	??_MENU,f
  2689  04F7  2CF6               	goto	u4187
  2690  04F8  0BA1               	decfsz	??_MENU+1,f
  2691  04F9  2CF6               	goto	u4187
  2692  04FA                     l2184:
  2693                           
  2694                           ;Sereal2.c: 496:         _delay((unsigned long)((5)*(8000000/4000.0)));
  2695  04FA  1283               	bcf	3,5	;RP0=0, select bank0
  2696  04FB  1303               	bcf	3,6	;RP1=0, select bank0
  2697  04FC  1E0C               	btfss	12,4	;volatile
  2698  04FD  2CFF               	goto	u3221
  2699  04FE  2D00               	goto	u3220
  2700  04FF                     u3221:
  2701  04FF  2D02               	goto	l136
  2702  0500                     u3220:
  2703  0500                     l2186:
  2704                           
  2705                           ;Sereal2.c: 497:         if (PIR1bits.TXIF);Sereal2.c: 498:         {
  2706  0500  3069               	movlw	105
  2707  0501  0099               	movwf	25	;volatile
  2708  0502                     l136:	
  2709                           ;Sereal2.c: 499:             TXREG = 82;
  2710                           
  2711                           
  2712                           ;Sereal2.c: 500:         }
  2713  0502  300D               	movlw	13
  2714  0503  1283               	bcf	3,5	;RP0=0, select bank0
  2715  0504  1303               	bcf	3,6	;RP1=0, select bank0
  2716  0505  00A1               	movwf	??_MENU+1
  2717  0506  30FB               	movlw	251
  2718  0507  00A0               	movwf	??_MENU
  2719  0508                     u4197:
  2720  0508  0BA0               	decfsz	??_MENU,f
  2721  0509  2D08               	goto	u4197
  2722  050A  0BA1               	decfsz	??_MENU+1,f
  2723  050B  2D08               	goto	u4197
  2724  050C                     l2188:
  2725                           
  2726                           ;Sereal2.c: 501:         _delay((unsigned long)((5)*(8000000/4000.0)));
  2727  050C  1283               	bcf	3,5	;RP0=0, select bank0
  2728  050D  1303               	bcf	3,6	;RP1=0, select bank0
  2729  050E  1E0C               	btfss	12,4	;volatile
  2730  050F  2D11               	goto	u3231
  2731  0510  2D12               	goto	u3230
  2732  0511                     u3231:
  2733  0511  2D14               	goto	l137
  2734  0512                     u3230:
  2735  0512                     l2190:
  2736                           
  2737                           ;Sereal2.c: 502:         if (PIR1bits.TXIF);Sereal2.c: 503:         {
  2738  0512  3061               	movlw	97
  2739  0513  0099               	movwf	25	;volatile
  2740  0514                     l137:	
  2741                           ;Sereal2.c: 504:             TXREG = 84;
  2742                           
  2743                           
  2744                           ;Sereal2.c: 505:         }
  2745  0514  300D               	movlw	13
  2746  0515  1283               	bcf	3,5	;RP0=0, select bank0
  2747  0516  1303               	bcf	3,6	;RP1=0, select bank0
  2748  0517  00A1               	movwf	??_MENU+1
  2749  0518  30FB               	movlw	251
  2750  0519  00A0               	movwf	??_MENU
  2751  051A                     u4207:
  2752  051A  0BA0               	decfsz	??_MENU,f
  2753  051B  2D1A               	goto	u4207
  2754  051C  0BA1               	decfsz	??_MENU+1,f
  2755  051D  2D1A               	goto	u4207
  2756  051E                     l2192:
  2757                           
  2758                           ;Sereal2.c: 506:         _delay((unsigned long)((5)*(8000000/4000.0)));
  2759  051E  1283               	bcf	3,5	;RP0=0, select bank0
  2760  051F  1303               	bcf	3,6	;RP1=0, select bank0
  2761  0520  1E0C               	btfss	12,4	;volatile
  2762  0521  2D23               	goto	u3241
  2763  0522  2D24               	goto	u3240
  2764  0523                     u3241:
  2765  0523  2D26               	goto	l138
  2766  0524                     u3240:
  2767  0524                     l2194:
  2768                           
  2769                           ;Sereal2.c: 507:         if (PIR1bits.TXIF);Sereal2.c: 508:         {
  2770  0524  3072               	movlw	114
  2771  0525  0099               	movwf	25	;volatile
  2772  0526                     l138:	
  2773                           ;Sereal2.c: 509:             TXREG = 65;
  2774                           
  2775                           
  2776                           ;Sereal2.c: 510:         }
  2777  0526  300D               	movlw	13
  2778  0527  1283               	bcf	3,5	;RP0=0, select bank0
  2779  0528  1303               	bcf	3,6	;RP1=0, select bank0
  2780  0529  00A1               	movwf	??_MENU+1
  2781  052A  30FB               	movlw	251
  2782  052B  00A0               	movwf	??_MENU
  2783  052C                     u4217:
  2784  052C  0BA0               	decfsz	??_MENU,f
  2785  052D  2D2C               	goto	u4217
  2786  052E  0BA1               	decfsz	??_MENU+1,f
  2787  052F  2D2C               	goto	u4217
  2788  0530                     l2196:
  2789                           
  2790                           ;Sereal2.c: 511:         _delay((unsigned long)((5)*(8000000/4000.0)));
  2791  0530  1283               	bcf	3,5	;RP0=0, select bank0
  2792  0531  1303               	bcf	3,6	;RP1=0, select bank0
  2793  0532  1E0C               	btfss	12,4	;volatile
  2794  0533  2D35               	goto	u3251
  2795  0534  2D36               	goto	u3250
  2796  0535                     u3251:
  2797  0535  2D38               	goto	l139
  2798  0536                     u3250:
  2799  0536                     l2198:
  2800                           
  2801                           ;Sereal2.c: 512:         if (PIR1bits.TXIF);Sereal2.c: 513:         {
  2802  0536  3020               	movlw	32
  2803  0537  0099               	movwf	25	;volatile
  2804  0538                     l139:	
  2805                           ;Sereal2.c: 514:             TXREG = 13;
  2806                           
  2807                           
  2808                           ;Sereal2.c: 515:         }
  2809  0538  300D               	movlw	13
  2810  0539  1283               	bcf	3,5	;RP0=0, select bank0
  2811  053A  1303               	bcf	3,6	;RP1=0, select bank0
  2812  053B  00A1               	movwf	??_MENU+1
  2813  053C  30FB               	movlw	251
  2814  053D  00A0               	movwf	??_MENU
  2815  053E                     u4227:
  2816  053E  0BA0               	decfsz	??_MENU,f
  2817  053F  2D3E               	goto	u4227
  2818  0540  0BA1               	decfsz	??_MENU+1,f
  2819  0541  2D3E               	goto	u4227
  2820  0542                     l2200:
  2821                           
  2822                           ;Sereal2.c: 516: 
  2823  0542  1283               	bcf	3,5	;RP0=0, select bank0
  2824  0543  1303               	bcf	3,6	;RP1=0, select bank0
  2825  0544  1E0C               	btfss	12,4	;volatile
  2826  0545  2D47               	goto	u3261
  2827  0546  2D48               	goto	u3260
  2828  0547                     u3261:
  2829  0547  2D4A               	goto	l140
  2830  0548                     u3260:
  2831  0548                     l2202:
  2832                           
  2833                           ;Sereal2.c: 517: ;Sereal2.c: 518: 
  2834  0548  3050               	movlw	80
  2835  0549  0099               	movwf	25	;volatile
  2836  054A                     l140:	
  2837                           ;Sereal2.c: 519:         _delay((unsigned long)((5)*(8000000/4000.0)));
  2838                           
  2839                           
  2840                           ;Sereal2.c: 520:         if (PIR1bits.TXIF)
  2841  054A  300D               	movlw	13
  2842  054B  1283               	bcf	3,5	;RP0=0, select bank0
  2843  054C  1303               	bcf	3,6	;RP1=0, select bank0
  2844  054D  00A1               	movwf	??_MENU+1
  2845  054E  30FB               	movlw	251
  2846  054F  00A0               	movwf	??_MENU
  2847  0550                     u4237:
  2848  0550  0BA0               	decfsz	??_MENU,f
  2849  0551  2D50               	goto	u4237
  2850  0552  0BA1               	decfsz	??_MENU+1,f
  2851  0553  2D50               	goto	u4237
  2852  0554                     l2204:
  2853                           
  2854                           ;Sereal2.c: 521:         {
  2855  0554  1283               	bcf	3,5	;RP0=0, select bank0
  2856  0555  1303               	bcf	3,6	;RP1=0, select bank0
  2857  0556  1E0C               	btfss	12,4	;volatile
  2858  0557  2D59               	goto	u3271
  2859  0558  2D5A               	goto	u3270
  2860  0559                     u3271:
  2861  0559  2D5C               	goto	l141
  2862  055A                     u3270:
  2863  055A                     l2206:
  2864                           
  2865                           ;Sereal2.c: 522:             TXREG = 40;;Sereal2.c: 523:         }
  2866  055A  304F               	movlw	79
  2867  055B  0099               	movwf	25	;volatile
  2868  055C                     l141:	
  2869                           ;Sereal2.c: 524:         _delay((unsigned long)((5)*(8000000/4000.0)));
  2870                           
  2871                           
  2872                           ;Sereal2.c: 525:         if (PIR1bits.TXIF)
  2873  055C  300D               	movlw	13
  2874  055D  1283               	bcf	3,5	;RP0=0, select bank0
  2875  055E  1303               	bcf	3,6	;RP1=0, select bank0
  2876  055F  00A1               	movwf	??_MENU+1
  2877  0560  30FB               	movlw	251
  2878  0561  00A0               	movwf	??_MENU
  2879  0562                     u4247:
  2880  0562  0BA0               	decfsz	??_MENU,f
  2881  0563  2D62               	goto	u4247
  2882  0564  0BA1               	decfsz	??_MENU+1,f
  2883  0565  2D62               	goto	u4247
  2884  0566                     l2208:
  2885                           
  2886                           ;Sereal2.c: 526:         {
  2887  0566  1283               	bcf	3,5	;RP0=0, select bank0
  2888  0567  1303               	bcf	3,6	;RP1=0, select bank0
  2889  0568  1E0C               	btfss	12,4	;volatile
  2890  0569  2D6B               	goto	u3281
  2891  056A  2D6C               	goto	u3280
  2892  056B                     u3281:
  2893  056B  2D6E               	goto	l142
  2894  056C                     u3280:
  2895  056C                     l2210:
  2896                           
  2897                           ;Sereal2.c: 527:             TXREG = 51;;Sereal2.c: 528:         }
  2898  056C  3052               	movlw	82
  2899  056D  0099               	movwf	25	;volatile
  2900  056E                     l142:	
  2901                           ;Sereal2.c: 529:         _delay((unsigned long)((5)*(8000000/4000.0)));
  2902                           
  2903                           
  2904                           ;Sereal2.c: 530:         if (PIR1bits.TXIF)
  2905  056E  300D               	movlw	13
  2906  056F  1283               	bcf	3,5	;RP0=0, select bank0
  2907  0570  1303               	bcf	3,6	;RP1=0, select bank0
  2908  0571  00A1               	movwf	??_MENU+1
  2909  0572  30FB               	movlw	251
  2910  0573  00A0               	movwf	??_MENU
  2911  0574                     u4257:
  2912  0574  0BA0               	decfsz	??_MENU,f
  2913  0575  2D74               	goto	u4257
  2914  0576  0BA1               	decfsz	??_MENU+1,f
  2915  0577  2D74               	goto	u4257
  2916  0578                     l2212:
  2917                           
  2918                           ;Sereal2.c: 531:         {
  2919  0578  1283               	bcf	3,5	;RP0=0, select bank0
  2920  0579  1303               	bcf	3,6	;RP1=0, select bank0
  2921  057A  1E0C               	btfss	12,4	;volatile
  2922  057B  2D7D               	goto	u3291
  2923  057C  2D7E               	goto	u3290
  2924  057D                     u3291:
  2925  057D  2D80               	goto	l143
  2926  057E                     u3290:
  2927  057E                     l2214:
  2928                           
  2929                           ;Sereal2.c: 532:             TXREG = 41;;Sereal2.c: 533:         }
  2930  057E  3054               	movlw	84
  2931  057F  0099               	movwf	25	;volatile
  2932  0580                     l143:	
  2933                           ;Sereal2.c: 534:         _delay((unsigned long)((5)*(8000000/4000.0)));
  2934                           
  2935                           
  2936                           ;Sereal2.c: 535:         if (PIR1bits.TXIF)
  2937  0580  300D               	movlw	13
  2938  0581  1283               	bcf	3,5	;RP0=0, select bank0
  2939  0582  1303               	bcf	3,6	;RP1=0, select bank0
  2940  0583  00A1               	movwf	??_MENU+1
  2941  0584  30FB               	movlw	251
  2942  0585  00A0               	movwf	??_MENU
  2943  0586                     u4267:
  2944  0586  0BA0               	decfsz	??_MENU,f
  2945  0587  2D86               	goto	u4267
  2946  0588  0BA1               	decfsz	??_MENU+1,f
  2947  0589  2D86               	goto	u4267
  2948  058A                     l2216:
  2949                           
  2950                           ;Sereal2.c: 536:         {
  2951  058A  1283               	bcf	3,5	;RP0=0, select bank0
  2952  058B  1303               	bcf	3,6	;RP1=0, select bank0
  2953  058C  1E0C               	btfss	12,4	;volatile
  2954  058D  2D8F               	goto	u3301
  2955  058E  2D90               	goto	u3300
  2956  058F                     u3301:
  2957  058F  2D92               	goto	l144
  2958  0590                     u3300:
  2959  0590                     l2218:
  2960                           
  2961                           ;Sereal2.c: 537:             TXREG = 32;;Sereal2.c: 538:         }
  2962  0590  3041               	movlw	65
  2963  0591  0099               	movwf	25	;volatile
  2964  0592                     l144:	
  2965                           ;Sereal2.c: 539:         _delay((unsigned long)((5)*(8000000/4000.0)));
  2966                           
  2967                           
  2968                           ;Sereal2.c: 540:         if (PIR1bits.TXIF)
  2969  0592  300D               	movlw	13
  2970  0593  1283               	bcf	3,5	;RP0=0, select bank0
  2971  0594  1303               	bcf	3,6	;RP1=0, select bank0
  2972  0595  00A1               	movwf	??_MENU+1
  2973  0596  30FB               	movlw	251
  2974  0597  00A0               	movwf	??_MENU
  2975  0598                     u4277:
  2976  0598  0BA0               	decfsz	??_MENU,f
  2977  0599  2D98               	goto	u4277
  2978  059A  0BA1               	decfsz	??_MENU+1,f
  2979  059B  2D98               	goto	u4277
  2980  059C                     l2220:
  2981                           
  2982                           ;Sereal2.c: 541:         {
  2983  059C  1283               	bcf	3,5	;RP0=0, select bank0
  2984  059D  1303               	bcf	3,6	;RP1=0, select bank0
  2985  059E  1E0C               	btfss	12,4	;volatile
  2986  059F  2DA1               	goto	u3311
  2987  05A0  2DA2               	goto	u3310
  2988  05A1                     u3311:
  2989  05A1  2DA4               	goto	l145
  2990  05A2                     u3310:
  2991  05A2                     l2222:
  2992                           
  2993                           ;Sereal2.c: 542:             TXREG = 67;;Sereal2.c: 543:         }
  2994  05A2  300D               	movlw	13
  2995  05A3  0099               	movwf	25	;volatile
  2996  05A4                     l145:	
  2997                           ;Sereal2.c: 544:         _delay((unsigned long)((5)*(8000000/4000.0)));
  2998                           
  2999                           
  3000                           ;Sereal2.c: 548:         }
  3001  05A4  300D               	movlw	13
  3002  05A5  1283               	bcf	3,5	;RP0=0, select bank0
  3003  05A6  1303               	bcf	3,6	;RP1=0, select bank0
  3004  05A7  00A1               	movwf	??_MENU+1
  3005  05A8  30FB               	movlw	251
  3006  05A9  00A0               	movwf	??_MENU
  3007  05AA                     u4287:
  3008  05AA  0BA0               	decfsz	??_MENU,f
  3009  05AB  2DAA               	goto	u4287
  3010  05AC  0BA1               	decfsz	??_MENU+1,f
  3011  05AD  2DAA               	goto	u4287
  3012  05AE                     l2224:
  3013                           
  3014                           ;Sereal2.c: 549:         _delay((unsigned long)((5)*(8000000/4000.0)));
  3015  05AE  1283               	bcf	3,5	;RP0=0, select bank0
  3016  05AF  1303               	bcf	3,6	;RP1=0, select bank0
  3017  05B0  1E0C               	btfss	12,4	;volatile
  3018  05B1  2DB3               	goto	u3321
  3019  05B2  2DB4               	goto	u3320
  3020  05B3                     u3321:
  3021  05B3  2DB6               	goto	l146
  3022  05B4                     u3320:
  3023  05B4                     l2226:
  3024                           
  3025                           ;Sereal2.c: 550:         if (PIR1bits.TXIF);Sereal2.c: 551:         {
  3026  05B4  3028               	movlw	40
  3027  05B5  0099               	movwf	25	;volatile
  3028  05B6                     l146:	
  3029                           ;Sereal2.c: 552:             TXREG = 109;
  3030                           
  3031                           
  3032                           ;Sereal2.c: 553:         }
  3033  05B6  300D               	movlw	13
  3034  05B7  1283               	bcf	3,5	;RP0=0, select bank0
  3035  05B8  1303               	bcf	3,6	;RP1=0, select bank0
  3036  05B9  00A1               	movwf	??_MENU+1
  3037  05BA  30FB               	movlw	251
  3038  05BB  00A0               	movwf	??_MENU
  3039  05BC                     u4297:
  3040  05BC  0BA0               	decfsz	??_MENU,f
  3041  05BD  2DBC               	goto	u4297
  3042  05BE  0BA1               	decfsz	??_MENU+1,f
  3043  05BF  2DBC               	goto	u4297
  3044  05C0                     l2228:
  3045                           
  3046                           ;Sereal2.c: 554:         _delay((unsigned long)((5)*(8000000/4000.0)));
  3047  05C0  1283               	bcf	3,5	;RP0=0, select bank0
  3048  05C1  1303               	bcf	3,6	;RP1=0, select bank0
  3049  05C2  1E0C               	btfss	12,4	;volatile
  3050  05C3  2DC5               	goto	u3331
  3051  05C4  2DC6               	goto	u3330
  3052  05C5                     u3331:
  3053  05C5  2DC8               	goto	l147
  3054  05C6                     u3330:
  3055  05C6                     l2230:
  3056                           
  3057                           ;Sereal2.c: 555:         if (PIR1bits.TXIF);Sereal2.c: 556:         {
  3058  05C6  3033               	movlw	51
  3059  05C7  0099               	movwf	25	;volatile
  3060  05C8                     l147:	
  3061                           ;Sereal2.c: 557:             TXREG = 98;
  3062                           
  3063                           
  3064                           ;Sereal2.c: 558:         }
  3065  05C8  300D               	movlw	13
  3066  05C9  1283               	bcf	3,5	;RP0=0, select bank0
  3067  05CA  1303               	bcf	3,6	;RP1=0, select bank0
  3068  05CB  00A1               	movwf	??_MENU+1
  3069  05CC  30FB               	movlw	251
  3070  05CD  00A0               	movwf	??_MENU
  3071  05CE                     u4307:
  3072  05CE  0BA0               	decfsz	??_MENU,f
  3073  05CF  2DCE               	goto	u4307
  3074  05D0  0BA1               	decfsz	??_MENU+1,f
  3075  05D1  2DCE               	goto	u4307
  3076  05D2                     l2232:
  3077                           
  3078                           ;Sereal2.c: 559:         _delay((unsigned long)((5)*(8000000/4000.0)));
  3079  05D2  1283               	bcf	3,5	;RP0=0, select bank0
  3080  05D3  1303               	bcf	3,6	;RP1=0, select bank0
  3081  05D4  1E0C               	btfss	12,4	;volatile
  3082  05D5  2DD7               	goto	u3341
  3083  05D6  2DD8               	goto	u3340
  3084  05D7                     u3341:
  3085  05D7  2DDA               	goto	l148
  3086  05D8                     u3340:
  3087  05D8                     l2234:
  3088                           
  3089                           ;Sereal2.c: 560:         if (PIR1bits.TXIF);Sereal2.c: 561:         {
  3090  05D8  3029               	movlw	41
  3091  05D9  0099               	movwf	25	;volatile
  3092  05DA                     l148:	
  3093                           ;Sereal2.c: 562:             TXREG = 105;
  3094                           
  3095                           
  3096                           ;Sereal2.c: 563:         }
  3097  05DA  300D               	movlw	13
  3098  05DB  1283               	bcf	3,5	;RP0=0, select bank0
  3099  05DC  1303               	bcf	3,6	;RP1=0, select bank0
  3100  05DD  00A1               	movwf	??_MENU+1
  3101  05DE  30FB               	movlw	251
  3102  05DF  00A0               	movwf	??_MENU
  3103  05E0                     u4317:
  3104  05E0  0BA0               	decfsz	??_MENU,f
  3105  05E1  2DE0               	goto	u4317
  3106  05E2  0BA1               	decfsz	??_MENU+1,f
  3107  05E3  2DE0               	goto	u4317
  3108  05E4                     l2236:
  3109                           
  3110                           ;Sereal2.c: 564:         _delay((unsigned long)((5)*(8000000/4000.0)));
  3111  05E4  1283               	bcf	3,5	;RP0=0, select bank0
  3112  05E5  1303               	bcf	3,6	;RP1=0, select bank0
  3113  05E6  1E0C               	btfss	12,4	;volatile
  3114  05E7  2DE9               	goto	u3351
  3115  05E8  2DEA               	goto	u3350
  3116  05E9                     u3351:
  3117  05E9  2DEC               	goto	l149
  3118  05EA                     u3350:
  3119  05EA                     l2238:
  3120                           
  3121                           ;Sereal2.c: 565:         if (PIR1bits.TXIF);Sereal2.c: 566:         {
  3122  05EA  3020               	movlw	32
  3123  05EB  0099               	movwf	25	;volatile
  3124  05EC                     l149:	
  3125                           ;Sereal2.c: 567:             TXREG = 97;
  3126                           
  3127                           
  3128                           ;Sereal2.c: 568:         }
  3129  05EC  300D               	movlw	13
  3130  05ED  1283               	bcf	3,5	;RP0=0, select bank0
  3131  05EE  1303               	bcf	3,6	;RP1=0, select bank0
  3132  05EF  00A1               	movwf	??_MENU+1
  3133  05F0  30FB               	movlw	251
  3134  05F1  00A0               	movwf	??_MENU
  3135  05F2                     u4327:
  3136  05F2  0BA0               	decfsz	??_MENU,f
  3137  05F3  2DF2               	goto	u4327
  3138  05F4  0BA1               	decfsz	??_MENU+1,f
  3139  05F5  2DF2               	goto	u4327
  3140  05F6                     l2240:
  3141                           
  3142                           ;Sereal2.c: 569:         _delay((unsigned long)((5)*(8000000/4000.0)));
  3143  05F6  1283               	bcf	3,5	;RP0=0, select bank0
  3144  05F7  1303               	bcf	3,6	;RP1=0, select bank0
  3145  05F8  1E0C               	btfss	12,4	;volatile
  3146  05F9  2DFB               	goto	u3361
  3147  05FA  2DFC               	goto	u3360
  3148  05FB                     u3361:
  3149  05FB  2DFE               	goto	l150
  3150  05FC                     u3360:
  3151  05FC                     l2242:
  3152                           
  3153                           ;Sereal2.c: 570:         if (PIR1bits.TXIF);Sereal2.c: 571:         {
  3154  05FC  3043               	movlw	67
  3155  05FD  0099               	movwf	25	;volatile
  3156  05FE                     l150:	
  3157                           ;Sereal2.c: 572:             TXREG = 114;
  3158                           
  3159                           
  3160                           ;Sereal2.c: 573:         }
  3161  05FE  300D               	movlw	13
  3162  05FF  1283               	bcf	3,5	;RP0=0, select bank0
  3163  0600  1303               	bcf	3,6	;RP1=0, select bank0
  3164  0601  00A1               	movwf	??_MENU+1
  3165  0602  30FB               	movlw	251
  3166  0603  00A0               	movwf	??_MENU
  3167  0604                     u4337:
  3168  0604  0BA0               	decfsz	??_MENU,f
  3169  0605  2E04               	goto	u4337
  3170  0606  0BA1               	decfsz	??_MENU+1,f
  3171  0607  2E04               	goto	u4337
  3172  0608                     l2244:
  3173                           
  3174                           ;Sereal2.c: 574:         _delay((unsigned long)((5)*(8000000/4000.0)));
  3175  0608  1283               	bcf	3,5	;RP0=0, select bank0
  3176  0609  1303               	bcf	3,6	;RP1=0, select bank0
  3177  060A  1E0C               	btfss	12,4	;volatile
  3178  060B  2E0D               	goto	u3371
  3179  060C  2E0E               	goto	u3370
  3180  060D                     u3371:
  3181  060D  2E10               	goto	l151
  3182  060E                     u3370:
  3183  060E                     l2246:
  3184                           
  3185                           ;Sereal2.c: 575:         if (PIR1bits.TXIF);Sereal2.c: 576:         {
  3186  060E  3061               	movlw	97
  3187  060F  0099               	movwf	25	;volatile
  3188  0610                     l151:	
  3189                           ;Sereal2.c: 577:             TXREG = 32;
  3190                           
  3191                           
  3192                           ;Sereal2.c: 578:         }
  3193  0610  300D               	movlw	13
  3194  0611  1283               	bcf	3,5	;RP0=0, select bank0
  3195  0612  1303               	bcf	3,6	;RP1=0, select bank0
  3196  0613  00A1               	movwf	??_MENU+1
  3197  0614  30FB               	movlw	251
  3198  0615  00A0               	movwf	??_MENU
  3199  0616                     u4347:
  3200  0616  0BA0               	decfsz	??_MENU,f
  3201  0617  2E16               	goto	u4347
  3202  0618  0BA1               	decfsz	??_MENU+1,f
  3203  0619  2E16               	goto	u4347
  3204  061A                     l2248:
  3205                           
  3206                           ;Sereal2.c: 579:         _delay((unsigned long)((5)*(8000000/4000.0)));
  3207  061A  1283               	bcf	3,5	;RP0=0, select bank0
  3208  061B  1303               	bcf	3,6	;RP1=0, select bank0
  3209  061C  1E0C               	btfss	12,4	;volatile
  3210  061D  2E1F               	goto	u3381
  3211  061E  2E20               	goto	u3380
  3212  061F                     u3381:
  3213  061F  2E22               	goto	l152
  3214  0620                     u3380:
  3215  0620                     l2250:
  3216                           
  3217                           ;Sereal2.c: 580:         if (PIR1bits.TXIF);Sereal2.c: 581:         {
  3218  0620  306D               	movlw	109
  3219  0621  0099               	movwf	25	;volatile
  3220  0622                     l152:	
  3221                           ;Sereal2.c: 582:             TXREG = 80;
  3222                           
  3223                           
  3224                           ;Sereal2.c: 583:         }
  3225  0622  300D               	movlw	13
  3226  0623  1283               	bcf	3,5	;RP0=0, select bank0
  3227  0624  1303               	bcf	3,6	;RP1=0, select bank0
  3228  0625  00A1               	movwf	??_MENU+1
  3229  0626  30FB               	movlw	251
  3230  0627  00A0               	movwf	??_MENU
  3231  0628                     u4357:
  3232  0628  0BA0               	decfsz	??_MENU,f
  3233  0629  2E28               	goto	u4357
  3234  062A  0BA1               	decfsz	??_MENU+1,f
  3235  062B  2E28               	goto	u4357
  3236  062C                     l2252:
  3237                           
  3238                           ;Sereal2.c: 584:         _delay((unsigned long)((5)*(8000000/4000.0)));
  3239  062C  1283               	bcf	3,5	;RP0=0, select bank0
  3240  062D  1303               	bcf	3,6	;RP1=0, select bank0
  3241  062E  1E0C               	btfss	12,4	;volatile
  3242  062F  2E31               	goto	u3391
  3243  0630  2E32               	goto	u3390
  3244  0631                     u3391:
  3245  0631  2E34               	goto	l153
  3246  0632                     u3390:
  3247  0632                     l2254:
  3248                           
  3249                           ;Sereal2.c: 585:         if (PIR1bits.TXIF);Sereal2.c: 586:         {
  3250  0632  3062               	movlw	98
  3251  0633  0099               	movwf	25	;volatile
  3252  0634                     l153:	
  3253                           ;Sereal2.c: 587:             TXREG = 79;
  3254                           
  3255                           
  3256                           ;Sereal2.c: 588:         }
  3257  0634  300D               	movlw	13
  3258  0635  1283               	bcf	3,5	;RP0=0, select bank0
  3259  0636  1303               	bcf	3,6	;RP1=0, select bank0
  3260  0637  00A1               	movwf	??_MENU+1
  3261  0638  30FB               	movlw	251
  3262  0639  00A0               	movwf	??_MENU
  3263  063A                     u4367:
  3264  063A  0BA0               	decfsz	??_MENU,f
  3265  063B  2E3A               	goto	u4367
  3266  063C  0BA1               	decfsz	??_MENU+1,f
  3267  063D  2E3A               	goto	u4367
  3268  063E                     l2256:
  3269                           
  3270                           ;Sereal2.c: 589:         _delay((unsigned long)((5)*(8000000/4000.0)));
  3271  063E  1283               	bcf	3,5	;RP0=0, select bank0
  3272  063F  1303               	bcf	3,6	;RP1=0, select bank0
  3273  0640  1E0C               	btfss	12,4	;volatile
  3274  0641  2E43               	goto	u3401
  3275  0642  2E44               	goto	u3400
  3276  0643                     u3401:
  3277  0643  2E46               	goto	l154
  3278  0644                     u3400:
  3279  0644                     l2258:
  3280                           
  3281                           ;Sereal2.c: 590:         if (PIR1bits.TXIF);Sereal2.c: 591:         {
  3282  0644  3069               	movlw	105
  3283  0645  0099               	movwf	25	;volatile
  3284  0646                     l154:	
  3285                           ;Sereal2.c: 592:             TXREG = 82;
  3286                           
  3287                           
  3288                           ;Sereal2.c: 593:         }
  3289  0646  300D               	movlw	13
  3290  0647  1283               	bcf	3,5	;RP0=0, select bank0
  3291  0648  1303               	bcf	3,6	;RP1=0, select bank0
  3292  0649  00A1               	movwf	??_MENU+1
  3293  064A  30FB               	movlw	251
  3294  064B  00A0               	movwf	??_MENU
  3295  064C                     u4377:
  3296  064C  0BA0               	decfsz	??_MENU,f
  3297  064D  2E4C               	goto	u4377
  3298  064E  0BA1               	decfsz	??_MENU+1,f
  3299  064F  2E4C               	goto	u4377
  3300  0650                     l2260:
  3301                           
  3302                           ;Sereal2.c: 594:         _delay((unsigned long)((5)*(8000000/4000.0)));
  3303  0650  1283               	bcf	3,5	;RP0=0, select bank0
  3304  0651  1303               	bcf	3,6	;RP1=0, select bank0
  3305  0652  1E0C               	btfss	12,4	;volatile
  3306  0653  2E55               	goto	u3411
  3307  0654  2E56               	goto	u3410
  3308  0655                     u3411:
  3309  0655  2E58               	goto	l155
  3310  0656                     u3410:
  3311  0656                     l2262:
  3312                           
  3313                           ;Sereal2.c: 595:         if (PIR1bits.TXIF);Sereal2.c: 596:         {
  3314  0656  3061               	movlw	97
  3315  0657  0099               	movwf	25	;volatile
  3316  0658                     l155:	
  3317                           ;Sereal2.c: 597:             TXREG = 84;
  3318                           
  3319                           
  3320                           ;Sereal2.c: 598:         }
  3321  0658  300D               	movlw	13
  3322  0659  1283               	bcf	3,5	;RP0=0, select bank0
  3323  065A  1303               	bcf	3,6	;RP1=0, select bank0
  3324  065B  00A1               	movwf	??_MENU+1
  3325  065C  30FB               	movlw	251
  3326  065D  00A0               	movwf	??_MENU
  3327  065E                     u4387:
  3328  065E  0BA0               	decfsz	??_MENU,f
  3329  065F  2E5E               	goto	u4387
  3330  0660  0BA1               	decfsz	??_MENU+1,f
  3331  0661  2E5E               	goto	u4387
  3332  0662                     l2264:
  3333                           
  3334                           ;Sereal2.c: 599:         _delay((unsigned long)((5)*(8000000/4000.0)));
  3335  0662  1283               	bcf	3,5	;RP0=0, select bank0
  3336  0663  1303               	bcf	3,6	;RP1=0, select bank0
  3337  0664  1E0C               	btfss	12,4	;volatile
  3338  0665  2E67               	goto	u3421
  3339  0666  2E68               	goto	u3420
  3340  0667                     u3421:
  3341  0667  2E6A               	goto	l156
  3342  0668                     u3420:
  3343  0668                     l2266:
  3344                           
  3345                           ;Sereal2.c: 600:         if (PIR1bits.TXIF);Sereal2.c: 601:         {
  3346  0668  3072               	movlw	114
  3347  0669  0099               	movwf	25	;volatile
  3348  066A                     l156:	
  3349                           ;Sereal2.c: 602:             TXREG = 66;
  3350                           
  3351                           
  3352                           ;Sereal2.c: 603:         }
  3353  066A  300D               	movlw	13
  3354  066B  1283               	bcf	3,5	;RP0=0, select bank0
  3355  066C  1303               	bcf	3,6	;RP1=0, select bank0
  3356  066D  00A1               	movwf	??_MENU+1
  3357  066E  30FB               	movlw	251
  3358  066F  00A0               	movwf	??_MENU
  3359  0670                     u4397:
  3360  0670  0BA0               	decfsz	??_MENU,f
  3361  0671  2E70               	goto	u4397
  3362  0672  0BA1               	decfsz	??_MENU+1,f
  3363  0673  2E70               	goto	u4397
  3364  0674                     l2268:
  3365                           
  3366                           ;Sereal2.c: 604:         _delay((unsigned long)((5)*(8000000/4000.0)));
  3367  0674  1283               	bcf	3,5	;RP0=0, select bank0
  3368  0675  1303               	bcf	3,6	;RP1=0, select bank0
  3369  0676  1E0C               	btfss	12,4	;volatile
  3370  0677  2E79               	goto	u3431
  3371  0678  2E7A               	goto	u3430
  3372  0679                     u3431:
  3373  0679  2E7C               	goto	l157
  3374  067A                     u3430:
  3375  067A                     l2270:
  3376                           
  3377                           ;Sereal2.c: 605:         if (PIR1bits.TXIF);Sereal2.c: 606:         {
  3378  067A  3020               	movlw	32
  3379  067B  0099               	movwf	25	;volatile
  3380  067C                     l157:	
  3381                           ;Sereal2.c: 607:             TXREG = 13;
  3382                           
  3383                           
  3384                           ;Sereal2.c: 608:         }
  3385  067C  300D               	movlw	13
  3386  067D  1283               	bcf	3,5	;RP0=0, select bank0
  3387  067E  1303               	bcf	3,6	;RP1=0, select bank0
  3388  067F  00A1               	movwf	??_MENU+1
  3389  0680  30FB               	movlw	251
  3390  0681  00A0               	movwf	??_MENU
  3391  0682                     u4407:
  3392  0682  0BA0               	decfsz	??_MENU,f
  3393  0683  2E82               	goto	u4407
  3394  0684  0BA1               	decfsz	??_MENU+1,f
  3395  0685  2E82               	goto	u4407
  3396  0686                     l2272:
  3397                           
  3398                           ;Sereal2.c: 609: }
  3399  0686  1283               	bcf	3,5	;RP0=0, select bank0
  3400  0687  1303               	bcf	3,6	;RP1=0, select bank0
  3401  0688  1E0C               	btfss	12,4	;volatile
  3402  0689  2E8B               	goto	u3441
  3403  068A  2E8C               	goto	u3440
  3404  068B                     u3441:
  3405  068B  2E8E               	goto	l158
  3406  068C                     u3440:
  3407  068C                     l2274:
  3408                           
  3409                           ;Sereal2.c: 610: ;Sereal2.c: 611: void INGRESE_NUEVO_VALOR (void)
  3410  068C  3050               	movlw	80
  3411  068D  0099               	movwf	25	;volatile
  3412  068E                     l158:	
  3413                           ;Sereal2.c: 612: {
  3414                           
  3415                           
  3416                           ;Sereal2.c: 613:     _delay((unsigned long)((5)*(8000000/4000.0)));
  3417  068E  300D               	movlw	13
  3418  068F  1283               	bcf	3,5	;RP0=0, select bank0
  3419  0690  1303               	bcf	3,6	;RP1=0, select bank0
  3420  0691  00A1               	movwf	??_MENU+1
  3421  0692  30FB               	movlw	251
  3422  0693  00A0               	movwf	??_MENU
  3423  0694                     u4417:
  3424  0694  0BA0               	decfsz	??_MENU,f
  3425  0695  2E94               	goto	u4417
  3426  0696  0BA1               	decfsz	??_MENU+1,f
  3427  0697  2E94               	goto	u4417
  3428  0698                     l2276:
  3429                           
  3430                           ;Sereal2.c: 614:     if (PIR1bits.TXIF)
  3431  0698  1283               	bcf	3,5	;RP0=0, select bank0
  3432  0699  1303               	bcf	3,6	;RP1=0, select bank0
  3433  069A  1E0C               	btfss	12,4	;volatile
  3434  069B  2E9D               	goto	u3451
  3435  069C  2E9E               	goto	u3450
  3436  069D                     u3451:
  3437  069D  2EA0               	goto	l159
  3438  069E                     u3450:
  3439  069E                     l2278:
  3440                           
  3441                           ;Sereal2.c: 615:     {;Sereal2.c: 616:         TXREG = 13;
  3442  069E  304F               	movlw	79
  3443  069F  0099               	movwf	25	;volatile
  3444  06A0                     l159:	
  3445                           ;Sereal2.c: 617:     }
  3446                           
  3447                           
  3448                           ;Sereal2.c: 618:     _delay((unsigned long)((5)*(8000000/4000.0)));
  3449  06A0  300D               	movlw	13
  3450  06A1  1283               	bcf	3,5	;RP0=0, select bank0
  3451  06A2  1303               	bcf	3,6	;RP1=0, select bank0
  3452  06A3  00A1               	movwf	??_MENU+1
  3453  06A4  30FB               	movlw	251
  3454  06A5  00A0               	movwf	??_MENU
  3455  06A6                     u4427:
  3456  06A6  0BA0               	decfsz	??_MENU,f
  3457  06A7  2EA6               	goto	u4427
  3458  06A8  0BA1               	decfsz	??_MENU+1,f
  3459  06A9  2EA6               	goto	u4427
  3460  06AA                     l2280:
  3461                           
  3462                           ;Sereal2.c: 619:     if (PIR1bits.TXIF)
  3463  06AA  1283               	bcf	3,5	;RP0=0, select bank0
  3464  06AB  1303               	bcf	3,6	;RP1=0, select bank0
  3465  06AC  1E0C               	btfss	12,4	;volatile
  3466  06AD  2EAF               	goto	u3461
  3467  06AE  2EB0               	goto	u3460
  3468  06AF                     u3461:
  3469  06AF  2EB2               	goto	l160
  3470  06B0                     u3460:
  3471  06B0                     l2282:
  3472                           
  3473                           ;Sereal2.c: 620:     {;Sereal2.c: 621:         TXREG = 73;
  3474  06B0  3052               	movlw	82
  3475  06B1  0099               	movwf	25	;volatile
  3476  06B2                     l160:	
  3477                           ;Sereal2.c: 622:     }
  3478                           
  3479                           
  3480                           ;Sereal2.c: 623:     _delay((unsigned long)((5)*(8000000/4000.0)));
  3481  06B2  300D               	movlw	13
  3482  06B3  1283               	bcf	3,5	;RP0=0, select bank0
  3483  06B4  1303               	bcf	3,6	;RP1=0, select bank0
  3484  06B5  00A1               	movwf	??_MENU+1
  3485  06B6  30FB               	movlw	251
  3486  06B7  00A0               	movwf	??_MENU
  3487  06B8                     u4437:
  3488  06B8  0BA0               	decfsz	??_MENU,f
  3489  06B9  2EB8               	goto	u4437
  3490  06BA  0BA1               	decfsz	??_MENU+1,f
  3491  06BB  2EB8               	goto	u4437
  3492  06BC                     l2284:
  3493                           
  3494                           ;Sereal2.c: 624:     if (PIR1bits.TXIF)
  3495  06BC  1283               	bcf	3,5	;RP0=0, select bank0
  3496  06BD  1303               	bcf	3,6	;RP1=0, select bank0
  3497  06BE  1E0C               	btfss	12,4	;volatile
  3498  06BF  2EC1               	goto	u3471
  3499  06C0  2EC2               	goto	u3470
  3500  06C1                     u3471:
  3501  06C1  2EC4               	goto	l161
  3502  06C2                     u3470:
  3503  06C2                     l2286:
  3504                           
  3505                           ;Sereal2.c: 625:     {;Sereal2.c: 626:         TXREG = 110;
  3506  06C2  3054               	movlw	84
  3507  06C3  0099               	movwf	25	;volatile
  3508  06C4                     l161:	
  3509                           ;Sereal2.c: 627:     }
  3510                           
  3511                           
  3512                           ;Sereal2.c: 628:     _delay((unsigned long)((5)*(8000000/4000.0)));
  3513  06C4  300D               	movlw	13
  3514  06C5  1283               	bcf	3,5	;RP0=0, select bank0
  3515  06C6  1303               	bcf	3,6	;RP1=0, select bank0
  3516  06C7  00A1               	movwf	??_MENU+1
  3517  06C8  30FB               	movlw	251
  3518  06C9  00A0               	movwf	??_MENU
  3519  06CA                     u4447:
  3520  06CA  0BA0               	decfsz	??_MENU,f
  3521  06CB  2ECA               	goto	u4447
  3522  06CC  0BA1               	decfsz	??_MENU+1,f
  3523  06CD  2ECA               	goto	u4447
  3524  06CE                     l2288:
  3525                           
  3526                           ;Sereal2.c: 629:     if (PIR1bits.TXIF)
  3527  06CE  1283               	bcf	3,5	;RP0=0, select bank0
  3528  06CF  1303               	bcf	3,6	;RP1=0, select bank0
  3529  06D0  1E0C               	btfss	12,4	;volatile
  3530  06D1  2ED3               	goto	u3481
  3531  06D2  2ED4               	goto	u3480
  3532  06D3                     u3481:
  3533  06D3  2ED6               	goto	l162
  3534  06D4                     u3480:
  3535  06D4                     l2290:
  3536                           
  3537                           ;Sereal2.c: 630:     {;Sereal2.c: 631:         TXREG = 103;
  3538  06D4  3042               	movlw	66
  3539  06D5  0099               	movwf	25	;volatile
  3540  06D6                     l162:	
  3541                           ;Sereal2.c: 632:     }
  3542                           
  3543                           
  3544                           ;Sereal2.c: 633:     _delay((unsigned long)((5)*(8000000/4000.0)));
  3545  06D6  300D               	movlw	13
  3546  06D7  1283               	bcf	3,5	;RP0=0, select bank0
  3547  06D8  1303               	bcf	3,6	;RP1=0, select bank0
  3548  06D9  00A1               	movwf	??_MENU+1
  3549  06DA  30FB               	movlw	251
  3550  06DB  00A0               	movwf	??_MENU
  3551  06DC                     u4457:
  3552  06DC  0BA0               	decfsz	??_MENU,f
  3553  06DD  2EDC               	goto	u4457
  3554  06DE  0BA1               	decfsz	??_MENU+1,f
  3555  06DF  2EDC               	goto	u4457
  3556  06E0                     l2292:
  3557                           
  3558                           ;Sereal2.c: 634:     if (PIR1bits.TXIF)
  3559  06E0  1283               	bcf	3,5	;RP0=0, select bank0
  3560  06E1  1303               	bcf	3,6	;RP1=0, select bank0
  3561  06E2  1E0C               	btfss	12,4	;volatile
  3562  06E3  2EE5               	goto	u3491
  3563  06E4  2EE6               	goto	u3490
  3564  06E5                     u3491:
  3565  06E5  2EE8               	goto	l164
  3566  06E6                     u3490:
  3567  06E6                     l2294:
  3568                           
  3569                           ;Sereal2.c: 635:     {;Sereal2.c: 636:         TXREG = 114;
  3570  06E6  300D               	movlw	13
  3571  06E7  0099               	movwf	25	;volatile
  3572  06E8                     l164:
  3573  06E8  0008               	return
  3574  06E9                     __end_of_MENU:
  3575                           
  3576                           	psect	text2
  3577  06E9                     __ptext2:	
  3578 ;; *************** function _isr *****************
  3579 ;; Defined at:
  3580 ;;		line 769 in file "Sereal2.c"
  3581 ;; Parameters:    Size  Location     Type
  3582 ;;		None
  3583 ;; Auto vars:     Size  Location     Type
  3584 ;;		None
  3585 ;; Return value:  Size  Location     Type
  3586 ;;                  1    wreg      void 
  3587 ;; Registers used:
  3588 ;;		wreg, fsr0l, fsr0h, status,2, status,0, pclath, cstack
  3589 ;; Tracked objects:
  3590 ;;		On entry : 0/0
  3591 ;;		On exit  : 0/0
  3592 ;;		Unchanged: 0/0
  3593 ;; Data sizes:     COMMON   BANK0   BANK1   BANK3   BANK2
  3594 ;;      Params:         0       0       0       0       0
  3595 ;;      Locals:         0       0       0       0       0
  3596 ;;      Temps:          5       0       0       0       0
  3597 ;;      Totals:         5       0       0       0       0
  3598 ;;Total ram usage:        5 bytes
  3599 ;; Hardware stack levels used:    1
  3600 ;; Hardware stack levels required when called:    1
  3601 ;; This function calls:
  3602 ;;		_HOLA_MUNDO
  3603 ;;		_INGRESE_NUEVO_VALOR
  3604 ;;		i1_MENU
  3605 ;; This function is called by:
  3606 ;;		Interrupt level 1
  3607 ;; This function uses a non-reentrant model
  3608 ;;
  3609                           
  3610                           
  3611                           ;psect for function _isr
  3612  06E9                     _isr:
  3613  06E9                     i1l1786:
  3614                           
  3615                           ;Sereal2.c: 771:                 }
  3616  06E9  1283               	bcf	3,5	;RP0=0, select bank0
  3617  06EA  1303               	bcf	3,6	;RP1=0, select bank0
  3618  06EB  1E8C               	btfss	12,5	;volatile
  3619  06EC  2EEE               	goto	u242_21
  3620  06ED  2EEF               	goto	u242_20
  3621  06EE                     u242_21:
  3622  06EE  2F8C               	goto	i1l214
  3623  06EF                     u242_20:
  3624  06EF  2F79               	goto	i1l1844
  3625  06F0                     i1l1790:
  3626                           
  3627                           ;Sereal2.c: 777:                 MENU();
  3628  06F0  120A  158A  203E  120A  118A  	fcall	_HOLA_MUNDO
  3629  06F5                     i1l1792:
  3630                           
  3631                           ;Sereal2.c: 778:                 Boolean=0;
  3632  06F5  1283               	bcf	3,5	;RP0=0, select bank0
  3633  06F6  1303               	bcf	3,6	;RP1=0, select bank0
  3634  06F7  1E0C               	btfss	12,4	;volatile
  3635  06F8  2EFA               	goto	u243_21
  3636  06F9  2EFB               	goto	u243_20
  3637  06FA                     u243_21:
  3638  06FA  2EFD               	goto	i1l1796
  3639  06FB                     u243_20:
  3640  06FB                     i1l1794:
  3641                           
  3642                           ;Sereal2.c: 779:                 break;;Sereal2.c: 780: 
  3643  06FB  300D               	movlw	13
  3644  06FC  0099               	movwf	25	;volatile
  3645  06FD                     i1l1796:
  3646                           
  3647                           ;Sereal2.c: 782:                 INGRESE_NUEVO_VALOR();
  3648  06FD  120A  158A  2193  120A  118A  	fcall	i1_MENU
  3649                           
  3650                           ;Sereal2.c: 783:                 do
  3651  0702  2F8C               	goto	i1l214
  3652  0703                     i1l1798:
  3653                           
  3654                           ;Sereal2.c: 786:                     {
  3655  0703  160A  118A  2656  120A  118A  	fcall	_INGRESE_NUEVO_VALOR
  3656  0708                     i1l1800:
  3657                           
  3658                           ;Sereal2.c: 788:                         Boolean = 255;;Sereal2.c: 789:                 
      +                              }
  3659  0708  1283               	bcf	3,5	;RP0=0, select bank0
  3660  0709  1303               	bcf	3,6	;RP1=0, select bank0
  3661  070A  1E8C               	btfss	12,5	;volatile
  3662  070B  2F0D               	goto	u244_21
  3663  070C  2F0E               	goto	u244_20
  3664  070D                     u244_21:
  3665  070D  2F14               	goto	i1l1804
  3666  070E                     u244_20:
  3667  070E                     i1l1802:
  3668                           
  3669                           ;Sereal2.c: 790:                 };Sereal2.c: 791:                 while (Boolean==0);
  3670  070E  081A               	movf	26,w	;volatile
  3671  070F  0085               	movwf	5	;volatile
  3672                           
  3673                           ;Sereal2.c: 792:                 _delay((unsigned long)((50)*(8000000/4000.0)));
  3674  0710  30FF               	movlw	255
  3675  0711  00F2               	movwf	??_isr
  3676  0712  0872               	movf	??_isr,w
  3677  0713  00F7               	movwf	_Boolean
  3678  0714                     i1l1804:
  3679                           
  3680                           ;Sereal2.c: 794:                 {
  3681  0714  0877               	movf	_Boolean,w
  3682  0715  1903               	btfsc	3,2
  3683  0716  2F18               	goto	u245_21
  3684  0717  2F19               	goto	u245_20
  3685  0718                     u245_21:
  3686  0718  2F08               	goto	i1l1800
  3687  0719                     u245_20:
  3688  0719                     i1l1806:
  3689                           
  3690                           ;Sereal2.c: 796:                 }
  3691  0719  3082               	movlw	130
  3692  071A  00F3               	movwf	??_isr+1
  3693  071B  30DD               	movlw	221
  3694  071C  00F2               	movwf	??_isr
  3695  071D                     u446_27:
  3696  071D  0BF2               	decfsz	??_isr,f
  3697  071E  2F1D               	goto	u446_27
  3698  071F  0BF3               	decfsz	??_isr+1,f
  3699  0720  2F1D               	goto	u446_27
  3700  0721  2F22               	nop2
  3701  0722                     i1l1808:
  3702                           
  3703                           ;Sereal2.c: 797:                 _delay((unsigned long)((50)*(8000000/4000.0)));
  3704  0722  1283               	bcf	3,5	;RP0=0, select bank0
  3705  0723  1303               	bcf	3,6	;RP1=0, select bank0
  3706  0724  1E0C               	btfss	12,4	;volatile
  3707  0725  2F27               	goto	u246_21
  3708  0726  2F28               	goto	u246_20
  3709  0727                     u246_21:
  3710  0727  2F2A               	goto	i1l206
  3711  0728                     u246_20:
  3712  0728                     i1l1810:
  3713                           
  3714                           ;Sereal2.c: 798:                 if (PIR1bits.TXIF);Sereal2.c: 799:                 {
  3715  0728  300D               	movlw	13
  3716  0729  0099               	movwf	25	;volatile
  3717  072A                     i1l206:	
  3718                           ;Sereal2.c: 800:                     TXREG = 13;
  3719                           
  3720                           
  3721                           ;Sereal2.c: 801:                 }
  3722  072A  3082               	movlw	130
  3723  072B  00F3               	movwf	??_isr+1
  3724  072C  30DD               	movlw	221
  3725  072D  00F2               	movwf	??_isr
  3726  072E                     u447_27:
  3727  072E  0BF2               	decfsz	??_isr,f
  3728  072F  2F2E               	goto	u447_27
  3729  0730  0BF3               	decfsz	??_isr+1,f
  3730  0731  2F2E               	goto	u447_27
  3731  0732  2F33               	nop2
  3732  0733                     i1l1812:
  3733                           
  3734                           ;Sereal2.c: 802:                 MENU();
  3735  0733  1283               	bcf	3,5	;RP0=0, select bank0
  3736  0734  1303               	bcf	3,6	;RP1=0, select bank0
  3737  0735  1E0C               	btfss	12,4	;volatile
  3738  0736  2F38               	goto	u247_21
  3739  0737  2F39               	goto	u247_20
  3740  0738                     u247_21:
  3741  0738  2F3B               	goto	i1l1816
  3742  0739                     u247_20:
  3743  0739                     i1l1814:
  3744                           
  3745                           ;Sereal2.c: 803:                 Boolean=0;;Sereal2.c: 804:                 break;
  3746  0739  300D               	movlw	13
  3747  073A  0099               	movwf	25	;volatile
  3748  073B                     i1l1816:
  3749                           
  3750                           ;Sereal2.c: 806:     }
  3751  073B  120A  158A  2193  120A  118A  	fcall	i1_MENU
  3752  0740                     i1l1818:
  3753                           
  3754                           ;Sereal2.c: 807: }
  3755  0740  01F7               	clrf	_Boolean
  3756                           
  3757                           ;Sereal2.c: 808: 
  3758  0741  2F8C               	goto	i1l214
  3759  0742                     i1l1820:
  3760                           
  3761                           ;Sereal2.c: 811: 
  3762  0742  160A  118A  2656  120A  118A  	fcall	_INGRESE_NUEVO_VALOR
  3763  0747                     i1l1822:
  3764                           
  3765                           ;Sereal2.c: 813:     OSCCONbits.IRCF1 = 0;;Sereal2.c: 814:     OSCCONbits.IRCF0 = 0;
  3766  0747  1283               	bcf	3,5	;RP0=0, select bank0
  3767  0748  1303               	bcf	3,6	;RP1=0, select bank0
  3768  0749  1E8C               	btfss	12,5	;volatile
  3769  074A  2F4C               	goto	u248_21
  3770  074B  2F4D               	goto	u248_20
  3771  074C                     u248_21:
  3772  074C  2F53               	goto	i1l1826
  3773  074D                     u248_20:
  3774  074D                     i1l1824:
  3775                           
  3776                           ;Sereal2.c: 815:     OSCCONbits.SCS = 1;;Sereal2.c: 816: 
  3777  074D  081A               	movf	26,w	;volatile
  3778  074E  0086               	movwf	6	;volatile
  3779                           
  3780                           ;Sereal2.c: 817:     ANSEL = 0;
  3781  074F  30FF               	movlw	255
  3782  0750  00F2               	movwf	??_isr
  3783  0751  0872               	movf	??_isr,w
  3784  0752  00F7               	movwf	_Boolean
  3785  0753                     i1l1826:
  3786                           
  3787                           ;Sereal2.c: 819:     TRISA = 0;
  3788  0753  0877               	movf	_Boolean,w
  3789  0754  1903               	btfsc	3,2
  3790  0755  2F57               	goto	u249_21
  3791  0756  2F58               	goto	u249_20
  3792  0757                     u249_21:
  3793  0757  2F47               	goto	i1l1822
  3794  0758                     u249_20:
  3795  0758                     i1l1828:
  3796                           
  3797                           ;Sereal2.c: 821: 
  3798  0758  3082               	movlw	130
  3799  0759  00F3               	movwf	??_isr+1
  3800  075A  30DD               	movlw	221
  3801  075B  00F2               	movwf	??_isr
  3802  075C                     u448_27:
  3803  075C  0BF2               	decfsz	??_isr,f
  3804  075D  2F5C               	goto	u448_27
  3805  075E  0BF3               	decfsz	??_isr+1,f
  3806  075F  2F5C               	goto	u448_27
  3807  0760  2F61               	nop2
  3808  0761                     i1l1830:
  3809                           
  3810                           ;Sereal2.c: 822:     PORTA = 0;
  3811  0761  1283               	bcf	3,5	;RP0=0, select bank0
  3812  0762  1303               	bcf	3,6	;RP1=0, select bank0
  3813  0763  1E0C               	btfss	12,4	;volatile
  3814  0764  2F66               	goto	u250_21
  3815  0765  2F67               	goto	u250_20
  3816  0766                     u250_21:
  3817  0766  2F69               	goto	i1l212
  3818  0767                     u250_20:
  3819  0767                     i1l1832:
  3820                           
  3821                           ;Sereal2.c: 823:     PORTB = 0;;Sereal2.c: 824: 
  3822  0767  300D               	movlw	13
  3823  0768  0099               	movwf	25	;volatile
  3824  0769                     i1l212:	
  3825                           ;Sereal2.c: 825: 
  3826                           
  3827                           
  3828                           ;Sereal2.c: 826:     TXSTAbits.SYNC = 0;
  3829  0769  3082               	movlw	130
  3830  076A  00F3               	movwf	??_isr+1
  3831  076B  30DD               	movlw	221
  3832  076C  00F2               	movwf	??_isr
  3833  076D                     u449_27:
  3834  076D  0BF2               	decfsz	??_isr,f
  3835  076E  2F6D               	goto	u449_27
  3836  076F  0BF3               	decfsz	??_isr+1,f
  3837  0770  2F6D               	goto	u449_27
  3838  0771  2F72               	nop2
  3839  0772                     i1l1834:
  3840                           
  3841                           ;Sereal2.c: 827:     TXSTAbits.BRGH = 1;
  3842  0772  1283               	bcf	3,5	;RP0=0, select bank0
  3843  0773  1303               	bcf	3,6	;RP1=0, select bank0
  3844  0774  1E0C               	btfss	12,4	;volatile
  3845  0775  2F77               	goto	u251_21
  3846  0776  2F78               	goto	u251_20
  3847  0777                     u251_21:
  3848  0777  2F3B               	goto	i1l1816
  3849  0778                     u251_20:
  3850  0778  2F39               	goto	i1l1814
  3851  0779                     i1l1844:
  3852  0779  081A               	movf	26,w	;volatile
  3853  077A  00F2               	movwf	??_isr
  3854  077B  01F3               	clrf	??_isr+1
  3855                           
  3856                           ; Switch on 2 bytes has been partitioned into a top level switch of size 1, and 1 sub-sw
      +                          itches
  3857                           ; Switch size 1, requested type "simple"
  3858                           ; Number of cases is 1, Range of values is 0 to 0
  3859                           ; switch strategies available:
  3860                           ; Name         Instructions Cycles
  3861                           ; simple_byte            4     3 (average)
  3862                           ; direct_byte           11     8 (fixed)
  3863                           ; jumptable            260     6 (fixed)
  3864                           ;	Chosen strategy is simple_byte
  3865  077C  0873               	movf	??_isr+1,w
  3866  077D  3A00               	xorlw	0	; case 0
  3867  077E  1903               	skipnz
  3868  077F  2F81               	goto	i1l2400
  3869  0780  2F8C               	goto	i1l214
  3870  0781                     i1l2400:
  3871                           
  3872                           ; Switch size 1, requested type "simple"
  3873                           ; Number of cases is 3, Range of values is 49 to 51
  3874                           ; switch strategies available:
  3875                           ; Name         Instructions Cycles
  3876                           ; simple_byte           10     6 (average)
  3877                           ; direct_byte           20    11 (fixed)
  3878                           ; jumptable            263     9 (fixed)
  3879                           ;	Chosen strategy is simple_byte
  3880  0781  0872               	movf	??_isr,w
  3881  0782  3A31               	xorlw	49	; case 49
  3882  0783  1903               	skipnz
  3883  0784  2EF0               	goto	i1l1790
  3884  0785  3A03               	xorlw	3	; case 50
  3885  0786  1903               	skipnz
  3886  0787  2F03               	goto	i1l1798
  3887  0788  3A01               	xorlw	1	; case 51
  3888  0789  1903               	skipnz
  3889  078A  2F42               	goto	i1l1820
  3890  078B  2F8C               	goto	i1l214
  3891  078C                     i1l214:
  3892  078C  0876               	movf	??_isr+4,w
  3893  078D  008A               	movwf	10
  3894  078E  0875               	movf	??_isr+3,w
  3895  078F  0084               	movwf	4
  3896  0790  0E74               	swapf	??_isr+2,w
  3897  0791  0083               	movwf	3
  3898  0792  0EFE               	swapf	btemp,f
  3899  0793  0E7E               	swapf	btemp,w
  3900  0794  0009               	retfie
  3901  0795                     __end_of_isr:
  3902                           
  3903                           	psect	intentry
  3904  0004                     __pintentry:	
  3905                           ;incstack = 0
  3906                           ; Regs used in _isr: [wreg-fsr0h+status,2+status,0+pclath+cstack]
  3907                           
  3908  0004                     interrupt_function:
  3909  007E                     saved_w	set	btemp
  3910  0004  00FE               	movwf	btemp
  3911  0005  0E03               	swapf	3,w
  3912  0006  00F4               	movwf	??_isr+2
  3913  0007  0804               	movf	4,w
  3914  0008  00F5               	movwf	??_isr+3
  3915  0009  080A               	movf	10,w
  3916  000A  00F6               	movwf	??_isr+4
  3917  000B  120A  118A  2EE9   	ljmp	_isr
  3918                           
  3919                           	psect	text3
  3920  0993                     __ptext3:	
  3921 ;; *************** function i1_MENU *****************
  3922 ;; Defined at:
  3923 ;;		line 139 in file "Sereal2.c"
  3924 ;; Parameters:    Size  Location     Type
  3925 ;;		None
  3926 ;; Auto vars:     Size  Location     Type
  3927 ;;		None
  3928 ;; Return value:  Size  Location     Type
  3929 ;;                  1    wreg      void 
  3930 ;; Registers used:
  3931 ;;		wreg
  3932 ;; Tracked objects:
  3933 ;;		On entry : 0/0
  3934 ;;		On exit  : 0/0
  3935 ;;		Unchanged: 0/0
  3936 ;; Data sizes:     COMMON   BANK0   BANK1   BANK3   BANK2
  3937 ;;      Params:         0       0       0       0       0
  3938 ;;      Locals:         0       0       0       0       0
  3939 ;;      Temps:          2       0       0       0       0
  3940 ;;      Totals:         2       0       0       0       0
  3941 ;;Total ram usage:        2 bytes
  3942 ;; Hardware stack levels used:    1
  3943 ;; This function calls:
  3944 ;;		Nothing
  3945 ;; This function is called by:
  3946 ;;		_isr
  3947 ;; This function uses a non-reentrant model
  3948 ;;
  3949                           
  3950                           
  3951                           ;psect for function i1_MENU
  3952  0993                     i1_MENU:
  3953  0993                     i1l1392:	
  3954                           ;incstack = 0
  3955                           ; Regs used in i1_MENU: [wreg]
  3956                           
  3957                           
  3958                           ;Sereal2.c: 141:         }
  3959  0993  300D               	movlw	13
  3960  0994  00F1               	movwf	??i1_MENU+1
  3961  0995  30FB               	movlw	251
  3962  0996  00F0               	movwf	??i1_MENU
  3963  0997                     u450_27:
  3964  0997  0BF0               	decfsz	??i1_MENU,f
  3965  0998  2997               	goto	u450_27
  3966  0999  0BF1               	decfsz	??i1_MENU+1,f
  3967  099A  2997               	goto	u450_27
  3968  099B  299C               	nop2
  3969  099C                     i1l1394:
  3970                           
  3971                           ;Sereal2.c: 142:         _delay((unsigned long)((5)*(8000000/4000.0)));
  3972  099C  1283               	bcf	3,5	;RP0=0, select bank0
  3973  099D  1303               	bcf	3,6	;RP1=0, select bank0
  3974  099E  1E0C               	btfss	12,4	;volatile
  3975  099F  29A1               	goto	u144_21
  3976  09A0  29A2               	goto	u144_20
  3977  09A1                     u144_21:
  3978  09A1  29A4               	goto	i1l66
  3979  09A2                     u144_20:
  3980  09A2                     i1l1396:
  3981                           
  3982                           ;Sereal2.c: 143:         if (PIR1bits.TXIF);Sereal2.c: 144:         {
  3983  09A2  3051               	movlw	81
  3984  09A3  0099               	movwf	25	;volatile
  3985  09A4                     i1l66:	
  3986                           ;Sereal2.c: 145:             TXREG = 99;
  3987                           
  3988                           
  3989                           ;Sereal2.c: 146:         }
  3990  09A4  300D               	movlw	13
  3991  09A5  00F1               	movwf	??i1_MENU+1
  3992  09A6  30FB               	movlw	251
  3993  09A7  00F0               	movwf	??i1_MENU
  3994  09A8                     u451_27:
  3995  09A8  0BF0               	decfsz	??i1_MENU,f
  3996  09A9  29A8               	goto	u451_27
  3997  09AA  0BF1               	decfsz	??i1_MENU+1,f
  3998  09AB  29A8               	goto	u451_27
  3999  09AC  29AD               	nop2
  4000  09AD                     i1l1398:
  4001                           
  4002                           ;Sereal2.c: 147:         _delay((unsigned long)((5)*(8000000/4000.0)));
  4003  09AD  1283               	bcf	3,5	;RP0=0, select bank0
  4004  09AE  1303               	bcf	3,6	;RP1=0, select bank0
  4005  09AF  1E0C               	btfss	12,4	;volatile
  4006  09B0  29B2               	goto	u145_21
  4007  09B1  29B3               	goto	u145_20
  4008  09B2                     u145_21:
  4009  09B2  29B5               	goto	i1l67
  4010  09B3                     u145_20:
  4011  09B3                     i1l1400:
  4012                           
  4013                           ;Sereal2.c: 148:         if (PIR1bits.TXIF);Sereal2.c: 149:         {
  4014  09B3  3075               	movlw	117
  4015  09B4  0099               	movwf	25	;volatile
  4016  09B5                     i1l67:	
  4017                           ;Sereal2.c: 150:             TXREG = 105;
  4018                           
  4019                           
  4020                           ;Sereal2.c: 151:         }
  4021  09B5  300D               	movlw	13
  4022  09B6  00F1               	movwf	??i1_MENU+1
  4023  09B7  30FB               	movlw	251
  4024  09B8  00F0               	movwf	??i1_MENU
  4025  09B9                     u452_27:
  4026  09B9  0BF0               	decfsz	??i1_MENU,f
  4027  09BA  29B9               	goto	u452_27
  4028  09BB  0BF1               	decfsz	??i1_MENU+1,f
  4029  09BC  29B9               	goto	u452_27
  4030  09BD  29BE               	nop2
  4031  09BE                     i1l1402:
  4032                           
  4033                           ;Sereal2.c: 152:         _delay((unsigned long)((5)*(8000000/4000.0)));
  4034  09BE  1283               	bcf	3,5	;RP0=0, select bank0
  4035  09BF  1303               	bcf	3,6	;RP1=0, select bank0
  4036  09C0  1E0C               	btfss	12,4	;volatile
  4037  09C1  29C3               	goto	u146_21
  4038  09C2  29C4               	goto	u146_20
  4039  09C3                     u146_21:
  4040  09C3  29C6               	goto	i1l68
  4041  09C4                     u146_20:
  4042  09C4                     i1l1404:
  4043                           
  4044                           ;Sereal2.c: 153:         if (PIR1bits.TXIF);Sereal2.c: 154:         {
  4045  09C4  3065               	movlw	101
  4046  09C5  0099               	movwf	25	;volatile
  4047  09C6                     i1l68:	
  4048                           ;Sereal2.c: 155:             TXREG = 111;
  4049                           
  4050                           
  4051                           ;Sereal2.c: 156:         }
  4052  09C6  300D               	movlw	13
  4053  09C7  00F1               	movwf	??i1_MENU+1
  4054  09C8  30FB               	movlw	251
  4055  09C9  00F0               	movwf	??i1_MENU
  4056  09CA                     u453_27:
  4057  09CA  0BF0               	decfsz	??i1_MENU,f
  4058  09CB  29CA               	goto	u453_27
  4059  09CC  0BF1               	decfsz	??i1_MENU+1,f
  4060  09CD  29CA               	goto	u453_27
  4061  09CE  29CF               	nop2
  4062  09CF                     i1l1406:
  4063                           
  4064                           ;Sereal2.c: 157:         _delay((unsigned long)((5)*(8000000/4000.0)));
  4065  09CF  1283               	bcf	3,5	;RP0=0, select bank0
  4066  09D0  1303               	bcf	3,6	;RP1=0, select bank0
  4067  09D1  1E0C               	btfss	12,4	;volatile
  4068  09D2  29D4               	goto	u147_21
  4069  09D3  29D5               	goto	u147_20
  4070  09D4                     u147_21:
  4071  09D4  29D7               	goto	i1l69
  4072  09D5                     u147_20:
  4073  09D5                     i1l1408:
  4074                           
  4075                           ;Sereal2.c: 158:         if (PIR1bits.TXIF);Sereal2.c: 159:         {
  4076  09D5  3020               	movlw	32
  4077  09D6  0099               	movwf	25	;volatile
  4078  09D7                     i1l69:	
  4079                           ;Sereal2.c: 160:             TXREG = 110;
  4080                           
  4081                           
  4082                           ;Sereal2.c: 161:         }
  4083  09D7  300D               	movlw	13
  4084  09D8  00F1               	movwf	??i1_MENU+1
  4085  09D9  30FB               	movlw	251
  4086  09DA  00F0               	movwf	??i1_MENU
  4087  09DB                     u454_27:
  4088  09DB  0BF0               	decfsz	??i1_MENU,f
  4089  09DC  29DB               	goto	u454_27
  4090  09DD  0BF1               	decfsz	??i1_MENU+1,f
  4091  09DE  29DB               	goto	u454_27
  4092  09DF  29E0               	nop2
  4093  09E0                     i1l1410:
  4094                           
  4095                           ;Sereal2.c: 162: 
  4096  09E0  1283               	bcf	3,5	;RP0=0, select bank0
  4097  09E1  1303               	bcf	3,6	;RP1=0, select bank0
  4098  09E2  1E0C               	btfss	12,4	;volatile
  4099  09E3  29E5               	goto	u148_21
  4100  09E4  29E6               	goto	u148_20
  4101  09E5                     u148_21:
  4102  09E5  29E8               	goto	i1l70
  4103  09E6                     u148_20:
  4104  09E6                     i1l1412:
  4105                           
  4106                           ;Sereal2.c: 163:         if (PIR1bits.TXIF);Sereal2.c: 164:         {
  4107  09E6  3061               	movlw	97
  4108  09E7  0099               	movwf	25	;volatile
  4109  09E8                     i1l70:	
  4110                           ;Sereal2.c: 165:             TXREG = 32;
  4111                           
  4112                           
  4113                           ;Sereal2.c: 166:         }
  4114  09E8  300D               	movlw	13
  4115  09E9  00F1               	movwf	??i1_MENU+1
  4116  09EA  30FB               	movlw	251
  4117  09EB  00F0               	movwf	??i1_MENU
  4118  09EC                     u455_27:
  4119  09EC  0BF0               	decfsz	??i1_MENU,f
  4120  09ED  29EC               	goto	u455_27
  4121  09EE  0BF1               	decfsz	??i1_MENU+1,f
  4122  09EF  29EC               	goto	u455_27
  4123  09F0  29F1               	nop2
  4124  09F1                     i1l1414:
  4125                           
  4126                           ;Sereal2.c: 167:         _delay((unsigned long)((5)*(8000000/4000.0)));
  4127  09F1  1283               	bcf	3,5	;RP0=0, select bank0
  4128  09F2  1303               	bcf	3,6	;RP1=0, select bank0
  4129  09F3  1E0C               	btfss	12,4	;volatile
  4130  09F4  29F6               	goto	u149_21
  4131  09F5  29F7               	goto	u149_20
  4132  09F6                     u149_21:
  4133  09F6  29F9               	goto	i1l71
  4134  09F7                     u149_20:
  4135  09F7                     i1l1416:
  4136                           
  4137                           ;Sereal2.c: 168:         if (PIR1bits.TXIF);Sereal2.c: 169:         {
  4138  09F7  3063               	movlw	99
  4139  09F8  0099               	movwf	25	;volatile
  4140  09F9                     i1l71:	
  4141                           ;Sereal2.c: 170:             TXREG = 100;
  4142                           
  4143                           
  4144                           ;Sereal2.c: 171:         }
  4145  09F9  300D               	movlw	13
  4146  09FA  00F1               	movwf	??i1_MENU+1
  4147  09FB  30FB               	movlw	251
  4148  09FC  00F0               	movwf	??i1_MENU
  4149  09FD                     u456_27:
  4150  09FD  0BF0               	decfsz	??i1_MENU,f
  4151  09FE  29FD               	goto	u456_27
  4152  09FF  0BF1               	decfsz	??i1_MENU+1,f
  4153  0A00  29FD               	goto	u456_27
  4154  0A01  2A02               	nop2
  4155  0A02                     i1l1418:
  4156                           
  4157                           ;Sereal2.c: 172:         _delay((unsigned long)((5)*(8000000/4000.0)));
  4158  0A02  1283               	bcf	3,5	;RP0=0, select bank0
  4159  0A03  1303               	bcf	3,6	;RP1=0, select bank0
  4160  0A04  1E0C               	btfss	12,4	;volatile
  4161  0A05  2A07               	goto	u150_21
  4162  0A06  2A08               	goto	u150_20
  4163  0A07                     u150_21:
  4164  0A07  2A0A               	goto	i1l72
  4165  0A08                     u150_20:
  4166  0A08                     i1l1420:
  4167                           
  4168                           ;Sereal2.c: 173:         if (PIR1bits.TXIF);Sereal2.c: 174:         {
  4169  0A08  3063               	movlw	99
  4170  0A09  0099               	movwf	25	;volatile
  4171  0A0A                     i1l72:	
  4172                           ;Sereal2.c: 175:             TXREG = 101;
  4173                           
  4174                           
  4175                           ;Sereal2.c: 176:         }
  4176  0A0A  300D               	movlw	13
  4177  0A0B  00F1               	movwf	??i1_MENU+1
  4178  0A0C  30FB               	movlw	251
  4179  0A0D  00F0               	movwf	??i1_MENU
  4180  0A0E                     u457_27:
  4181  0A0E  0BF0               	decfsz	??i1_MENU,f
  4182  0A0F  2A0E               	goto	u457_27
  4183  0A10  0BF1               	decfsz	??i1_MENU+1,f
  4184  0A11  2A0E               	goto	u457_27
  4185  0A12  2A13               	nop2
  4186  0A13                     i1l1422:
  4187                           
  4188                           ;Sereal2.c: 177:         _delay((unsigned long)((5)*(8000000/4000.0)));
  4189  0A13  1283               	bcf	3,5	;RP0=0, select bank0
  4190  0A14  1303               	bcf	3,6	;RP1=0, select bank0
  4191  0A15  1E0C               	btfss	12,4	;volatile
  4192  0A16  2A18               	goto	u151_21
  4193  0A17  2A19               	goto	u151_20
  4194  0A18                     u151_21:
  4195  0A18  2A1B               	goto	i1l73
  4196  0A19                     u151_20:
  4197  0A19                     i1l1424:
  4198                           
  4199                           ;Sereal2.c: 178:         if (PIR1bits.TXIF);Sereal2.c: 179:         {
  4200  0A19  3069               	movlw	105
  4201  0A1A  0099               	movwf	25	;volatile
  4202  0A1B                     i1l73:	
  4203                           ;Sereal2.c: 180:             TXREG = 115;
  4204                           
  4205                           
  4206                           ;Sereal2.c: 181:         }
  4207  0A1B  300D               	movlw	13
  4208  0A1C  00F1               	movwf	??i1_MENU+1
  4209  0A1D  30FB               	movlw	251
  4210  0A1E  00F0               	movwf	??i1_MENU
  4211  0A1F                     u458_27:
  4212  0A1F  0BF0               	decfsz	??i1_MENU,f
  4213  0A20  2A1F               	goto	u458_27
  4214  0A21  0BF1               	decfsz	??i1_MENU+1,f
  4215  0A22  2A1F               	goto	u458_27
  4216  0A23  2A24               	nop2
  4217  0A24                     i1l1426:
  4218                           
  4219                           ;Sereal2.c: 182:         _delay((unsigned long)((5)*(8000000/4000.0)));
  4220  0A24  1283               	bcf	3,5	;RP0=0, select bank0
  4221  0A25  1303               	bcf	3,6	;RP1=0, select bank0
  4222  0A26  1E0C               	btfss	12,4	;volatile
  4223  0A27  2A29               	goto	u152_21
  4224  0A28  2A2A               	goto	u152_20
  4225  0A29                     u152_21:
  4226  0A29  2A2C               	goto	i1l74
  4227  0A2A                     u152_20:
  4228  0A2A                     i1l1428:
  4229                           
  4230                           ;Sereal2.c: 183:         if (PIR1bits.TXIF);Sereal2.c: 184:         {
  4231  0A2A  306F               	movlw	111
  4232  0A2B  0099               	movwf	25	;volatile
  4233  0A2C                     i1l74:	
  4234                           ;Sereal2.c: 185:             TXREG = 101;
  4235                           
  4236                           
  4237                           ;Sereal2.c: 186:         }
  4238  0A2C  300D               	movlw	13
  4239  0A2D  00F1               	movwf	??i1_MENU+1
  4240  0A2E  30FB               	movlw	251
  4241  0A2F  00F0               	movwf	??i1_MENU
  4242  0A30                     u459_27:
  4243  0A30  0BF0               	decfsz	??i1_MENU,f
  4244  0A31  2A30               	goto	u459_27
  4245  0A32  0BF1               	decfsz	??i1_MENU+1,f
  4246  0A33  2A30               	goto	u459_27
  4247  0A34  2A35               	nop2
  4248  0A35                     i1l1430:
  4249                           
  4250                           ;Sereal2.c: 187:         _delay((unsigned long)((5)*(8000000/4000.0)));
  4251  0A35  1283               	bcf	3,5	;RP0=0, select bank0
  4252  0A36  1303               	bcf	3,6	;RP1=0, select bank0
  4253  0A37  1E0C               	btfss	12,4	;volatile
  4254  0A38  2A3A               	goto	u153_21
  4255  0A39  2A3B               	goto	u153_20
  4256  0A3A                     u153_21:
  4257  0A3A  2A3D               	goto	i1l1434
  4258  0A3B                     u153_20:
  4259  0A3B                     i1l1432:
  4260                           
  4261                           ;Sereal2.c: 188:         if (PIR1bits.TXIF);Sereal2.c: 189:         {
  4262  0A3B  306E               	movlw	110
  4263  0A3C  0099               	movwf	25	;volatile
  4264  0A3D                     i1l1434:
  4265                           
  4266                           ;Sereal2.c: 192:         _delay((unsigned long)((5)*(8000000/4000.0)));
  4267  0A3D  1E0C               	btfss	12,4	;volatile
  4268  0A3E  2A40               	goto	u154_21
  4269  0A3F  2A41               	goto	u154_20
  4270  0A40                     u154_21:
  4271  0A40  2A43               	goto	i1l76
  4272  0A41                     u154_20:
  4273  0A41                     i1l1436:
  4274                           
  4275                           ;Sereal2.c: 193:         if (PIR1bits.TXIF);Sereal2.c: 194:         {
  4276  0A41  3020               	movlw	32
  4277  0A42  0099               	movwf	25	;volatile
  4278  0A43                     i1l76:	
  4279                           ;Sereal2.c: 195:             TXREG = 32;
  4280                           
  4281                           
  4282                           ;Sereal2.c: 196:         }
  4283  0A43  300D               	movlw	13
  4284  0A44  00F1               	movwf	??i1_MENU+1
  4285  0A45  30FB               	movlw	251
  4286  0A46  00F0               	movwf	??i1_MENU
  4287  0A47                     u460_27:
  4288  0A47  0BF0               	decfsz	??i1_MENU,f
  4289  0A48  2A47               	goto	u460_27
  4290  0A49  0BF1               	decfsz	??i1_MENU+1,f
  4291  0A4A  2A47               	goto	u460_27
  4292  0A4B  2A4C               	nop2
  4293  0A4C                     i1l1438:
  4294                           
  4295                           ;Sereal2.c: 197:         _delay((unsigned long)((5)*(8000000/4000.0)));
  4296  0A4C  1283               	bcf	3,5	;RP0=0, select bank0
  4297  0A4D  1303               	bcf	3,6	;RP1=0, select bank0
  4298  0A4E  1E0C               	btfss	12,4	;volatile
  4299  0A4F  2A51               	goto	u155_21
  4300  0A50  2A52               	goto	u155_20
  4301  0A51                     u155_21:
  4302  0A51  2A54               	goto	i1l77
  4303  0A52                     u155_20:
  4304  0A52                     i1l1440:
  4305                           
  4306                           ;Sereal2.c: 198:         if (PIR1bits.TXIF);Sereal2.c: 199:         {
  4307  0A52  3064               	movlw	100
  4308  0A53  0099               	movwf	25	;volatile
  4309  0A54                     i1l77:	
  4310                           ;Sereal2.c: 200:             TXREG = 101;
  4311                           
  4312                           
  4313                           ;Sereal2.c: 201:         }
  4314  0A54  300D               	movlw	13
  4315  0A55  00F1               	movwf	??i1_MENU+1
  4316  0A56  30FB               	movlw	251
  4317  0A57  00F0               	movwf	??i1_MENU
  4318  0A58                     u461_27:
  4319  0A58  0BF0               	decfsz	??i1_MENU,f
  4320  0A59  2A58               	goto	u461_27
  4321  0A5A  0BF1               	decfsz	??i1_MENU+1,f
  4322  0A5B  2A58               	goto	u461_27
  4323  0A5C  2A5D               	nop2
  4324  0A5D                     i1l1442:
  4325                           
  4326                           ;Sereal2.c: 202:         _delay((unsigned long)((5)*(8000000/4000.0)));
  4327  0A5D  1283               	bcf	3,5	;RP0=0, select bank0
  4328  0A5E  1303               	bcf	3,6	;RP1=0, select bank0
  4329  0A5F  1E0C               	btfss	12,4	;volatile
  4330  0A60  2A62               	goto	u156_21
  4331  0A61  2A63               	goto	u156_20
  4332  0A62                     u156_21:
  4333  0A62  2A65               	goto	i1l78
  4334  0A63                     u156_20:
  4335  0A63                     i1l1444:
  4336                           
  4337                           ;Sereal2.c: 203:         if (PIR1bits.TXIF);Sereal2.c: 204:         {
  4338  0A63  3065               	movlw	101
  4339  0A64  0099               	movwf	25	;volatile
  4340  0A65                     i1l78:	
  4341                           ;Sereal2.c: 205:             TXREG = 106;
  4342                           
  4343                           
  4344                           ;Sereal2.c: 206:         }
  4345  0A65  300D               	movlw	13
  4346  0A66  00F1               	movwf	??i1_MENU+1
  4347  0A67  30FB               	movlw	251
  4348  0A68  00F0               	movwf	??i1_MENU
  4349  0A69                     u462_27:
  4350  0A69  0BF0               	decfsz	??i1_MENU,f
  4351  0A6A  2A69               	goto	u462_27
  4352  0A6B  0BF1               	decfsz	??i1_MENU+1,f
  4353  0A6C  2A69               	goto	u462_27
  4354  0A6D  2A6E               	nop2
  4355  0A6E                     i1l1446:
  4356                           
  4357                           ;Sereal2.c: 207:         _delay((unsigned long)((5)*(8000000/4000.0)));
  4358  0A6E  1283               	bcf	3,5	;RP0=0, select bank0
  4359  0A6F  1303               	bcf	3,6	;RP1=0, select bank0
  4360  0A70  1E0C               	btfss	12,4	;volatile
  4361  0A71  2A73               	goto	u157_21
  4362  0A72  2A74               	goto	u157_20
  4363  0A73                     u157_21:
  4364  0A73  2A76               	goto	i1l79
  4365  0A74                     u157_20:
  4366  0A74                     i1l1448:
  4367                           
  4368                           ;Sereal2.c: 208:         if (PIR1bits.TXIF);Sereal2.c: 209:         {
  4369  0A74  3073               	movlw	115
  4370  0A75  0099               	movwf	25	;volatile
  4371  0A76                     i1l79:	
  4372                           ;Sereal2.c: 210:             TXREG = 101;
  4373                           
  4374                           
  4375                           ;Sereal2.c: 211:         }
  4376  0A76  300D               	movlw	13
  4377  0A77  00F1               	movwf	??i1_MENU+1
  4378  0A78  30FB               	movlw	251
  4379  0A79  00F0               	movwf	??i1_MENU
  4380  0A7A                     u463_27:
  4381  0A7A  0BF0               	decfsz	??i1_MENU,f
  4382  0A7B  2A7A               	goto	u463_27
  4383  0A7C  0BF1               	decfsz	??i1_MENU+1,f
  4384  0A7D  2A7A               	goto	u463_27
  4385  0A7E  2A7F               	nop2
  4386  0A7F                     i1l1450:
  4387                           
  4388                           ;Sereal2.c: 212:         _delay((unsigned long)((5)*(8000000/4000.0)));
  4389  0A7F  1283               	bcf	3,5	;RP0=0, select bank0
  4390  0A80  1303               	bcf	3,6	;RP1=0, select bank0
  4391  0A81  1E0C               	btfss	12,4	;volatile
  4392  0A82  2A84               	goto	u158_21
  4393  0A83  2A85               	goto	u158_20
  4394  0A84                     u158_21:
  4395  0A84  2A87               	goto	i1l80
  4396  0A85                     u158_20:
  4397  0A85                     i1l1452:
  4398                           
  4399                           ;Sereal2.c: 213:         if (PIR1bits.TXIF);Sereal2.c: 214:         {
  4400  0A85  3065               	movlw	101
  4401  0A86  0099               	movwf	25	;volatile
  4402  0A87                     i1l80:	
  4403                           ;Sereal2.c: 215:             TXREG = 99;
  4404                           
  4405                           
  4406                           ;Sereal2.c: 216:         }
  4407  0A87  300D               	movlw	13
  4408  0A88  00F1               	movwf	??i1_MENU+1
  4409  0A89  30FB               	movlw	251
  4410  0A8A  00F0               	movwf	??i1_MENU
  4411  0A8B                     u464_27:
  4412  0A8B  0BF0               	decfsz	??i1_MENU,f
  4413  0A8C  2A8B               	goto	u464_27
  4414  0A8D  0BF1               	decfsz	??i1_MENU+1,f
  4415  0A8E  2A8B               	goto	u464_27
  4416  0A8F  2A90               	nop2
  4417  0A90                     i1l1454:
  4418                           
  4419                           ;Sereal2.c: 217:         _delay((unsigned long)((5)*(8000000/4000.0)));
  4420  0A90  1283               	bcf	3,5	;RP0=0, select bank0
  4421  0A91  1303               	bcf	3,6	;RP1=0, select bank0
  4422  0A92  1E0C               	btfss	12,4	;volatile
  4423  0A93  2A95               	goto	u159_21
  4424  0A94  2A96               	goto	u159_20
  4425  0A95                     u159_21:
  4426  0A95  2A98               	goto	i1l81
  4427  0A96                     u159_20:
  4428  0A96                     i1l1456:
  4429                           
  4430                           ;Sereal2.c: 218:         if (PIR1bits.TXIF);Sereal2.c: 219:         {
  4431  0A96  3061               	movlw	97
  4432  0A97  0099               	movwf	25	;volatile
  4433  0A98                     i1l81:	
  4434                           ;Sereal2.c: 220:             TXREG = 117;
  4435                           
  4436                           
  4437                           ;Sereal2.c: 221:         }
  4438  0A98  300D               	movlw	13
  4439  0A99  00F1               	movwf	??i1_MENU+1
  4440  0A9A  30FB               	movlw	251
  4441  0A9B  00F0               	movwf	??i1_MENU
  4442  0A9C                     u465_27:
  4443  0A9C  0BF0               	decfsz	??i1_MENU,f
  4444  0A9D  2A9C               	goto	u465_27
  4445  0A9E  0BF1               	decfsz	??i1_MENU+1,f
  4446  0A9F  2A9C               	goto	u465_27
  4447  0AA0  2AA1               	nop2
  4448  0AA1                     i1l1458:
  4449                           
  4450                           ;Sereal2.c: 222:         _delay((unsigned long)((5)*(8000000/4000.0)));
  4451  0AA1  1283               	bcf	3,5	;RP0=0, select bank0
  4452  0AA2  1303               	bcf	3,6	;RP1=0, select bank0
  4453  0AA3  1E0C               	btfss	12,4	;volatile
  4454  0AA4  2AA6               	goto	u160_21
  4455  0AA5  2AA7               	goto	u160_20
  4456  0AA6                     u160_21:
  4457  0AA6  2AA9               	goto	i1l82
  4458  0AA7                     u160_20:
  4459  0AA7                     i1l1460:
  4460                           
  4461                           ;Sereal2.c: 223:         if (PIR1bits.TXIF);Sereal2.c: 224:         {
  4462  0AA7  3020               	movlw	32
  4463  0AA8  0099               	movwf	25	;volatile
  4464  0AA9                     i1l82:	
  4465                           ;Sereal2.c: 225:             TXREG = 116;
  4466                           
  4467                           
  4468                           ;Sereal2.c: 226:         }
  4469  0AA9  300D               	movlw	13
  4470  0AAA  00F1               	movwf	??i1_MENU+1
  4471  0AAB  30FB               	movlw	251
  4472  0AAC  00F0               	movwf	??i1_MENU
  4473  0AAD                     u466_27:
  4474  0AAD  0BF0               	decfsz	??i1_MENU,f
  4475  0AAE  2AAD               	goto	u466_27
  4476  0AAF  0BF1               	decfsz	??i1_MENU+1,f
  4477  0AB0  2AAD               	goto	u466_27
  4478  0AB1  2AB2               	nop2
  4479  0AB2                     i1l1462:
  4480                           
  4481                           ;Sereal2.c: 227:         _delay((unsigned long)((5)*(8000000/4000.0)));
  4482  0AB2  1283               	bcf	3,5	;RP0=0, select bank0
  4483  0AB3  1303               	bcf	3,6	;RP1=0, select bank0
  4484  0AB4  1E0C               	btfss	12,4	;volatile
  4485  0AB5  2AB7               	goto	u161_21
  4486  0AB6  2AB8               	goto	u161_20
  4487  0AB7                     u161_21:
  4488  0AB7  2ABA               	goto	i1l83
  4489  0AB8                     u161_20:
  4490  0AB8                     i1l1464:
  4491                           
  4492                           ;Sereal2.c: 228:         if (PIR1bits.TXIF);Sereal2.c: 229:         {
  4493  0AB8  3065               	movlw	101
  4494  0AB9  0099               	movwf	25	;volatile
  4495  0ABA                     i1l83:	
  4496                           ;Sereal2.c: 230:             TXREG = 97;
  4497                           
  4498                           
  4499                           ;Sereal2.c: 231:         }
  4500  0ABA  300D               	movlw	13
  4501  0ABB  00F1               	movwf	??i1_MENU+1
  4502  0ABC  30FB               	movlw	251
  4503  0ABD  00F0               	movwf	??i1_MENU
  4504  0ABE                     u467_27:
  4505  0ABE  0BF0               	decfsz	??i1_MENU,f
  4506  0ABF  2ABE               	goto	u467_27
  4507  0AC0  0BF1               	decfsz	??i1_MENU+1,f
  4508  0AC1  2ABE               	goto	u467_27
  4509  0AC2  2AC3               	nop2
  4510  0AC3                     i1l1466:
  4511                           
  4512                           ;Sereal2.c: 232:         _delay((unsigned long)((5)*(8000000/4000.0)));
  4513  0AC3  1283               	bcf	3,5	;RP0=0, select bank0
  4514  0AC4  1303               	bcf	3,6	;RP1=0, select bank0
  4515  0AC5  1E0C               	btfss	12,4	;volatile
  4516  0AC6  2AC8               	goto	u162_21
  4517  0AC7  2AC9               	goto	u162_20
  4518  0AC8                     u162_21:
  4519  0AC8  2ACB               	goto	i1l84
  4520  0AC9                     u162_20:
  4521  0AC9                     i1l1468:
  4522                           
  4523                           ;Sereal2.c: 233:         if (PIR1bits.TXIF);Sereal2.c: 234:         {
  4524  0AC9  306A               	movlw	106
  4525  0ACA  0099               	movwf	25	;volatile
  4526  0ACB                     i1l84:	
  4527                           ;Sereal2.c: 235:             TXREG = 114;
  4528                           
  4529                           
  4530                           ;Sereal2.c: 236:         }
  4531  0ACB  300D               	movlw	13
  4532  0ACC  00F1               	movwf	??i1_MENU+1
  4533  0ACD  30FB               	movlw	251
  4534  0ACE  00F0               	movwf	??i1_MENU
  4535  0ACF                     u468_27:
  4536  0ACF  0BF0               	decfsz	??i1_MENU,f
  4537  0AD0  2ACF               	goto	u468_27
  4538  0AD1  0BF1               	decfsz	??i1_MENU+1,f
  4539  0AD2  2ACF               	goto	u468_27
  4540  0AD3  2AD4               	nop2
  4541  0AD4                     i1l1470:
  4542                           
  4543                           ;Sereal2.c: 237:         if (PIR1bits.TXIF)
  4544  0AD4  1283               	bcf	3,5	;RP0=0, select bank0
  4545  0AD5  1303               	bcf	3,6	;RP1=0, select bank0
  4546  0AD6  1E0C               	btfss	12,4	;volatile
  4547  0AD7  2AD9               	goto	u163_21
  4548  0AD8  2ADA               	goto	u163_20
  4549  0AD9                     u163_21:
  4550  0AD9  2ADC               	goto	i1l85
  4551  0ADA                     u163_20:
  4552  0ADA                     i1l1472:
  4553                           
  4554                           ;Sereal2.c: 238:         {;Sereal2.c: 239:             TXREG = 63;
  4555  0ADA  3065               	movlw	101
  4556  0ADB  0099               	movwf	25	;volatile
  4557  0ADC                     i1l85:	
  4558                           ;Sereal2.c: 240:         }
  4559                           
  4560                           
  4561                           ;Sereal2.c: 241: 
  4562  0ADC  300D               	movlw	13
  4563  0ADD  00F1               	movwf	??i1_MENU+1
  4564  0ADE  30FB               	movlw	251
  4565  0ADF  00F0               	movwf	??i1_MENU
  4566  0AE0                     u469_27:
  4567  0AE0  0BF0               	decfsz	??i1_MENU,f
  4568  0AE1  2AE0               	goto	u469_27
  4569  0AE2  0BF1               	decfsz	??i1_MENU+1,f
  4570  0AE3  2AE0               	goto	u469_27
  4571  0AE4  2AE5               	nop2
  4572  0AE5                     i1l1474:
  4573                           
  4574                           ;Sereal2.c: 242:         _delay((unsigned long)((5)*(8000000/4000.0)));
  4575  0AE5  1283               	bcf	3,5	;RP0=0, select bank0
  4576  0AE6  1303               	bcf	3,6	;RP1=0, select bank0
  4577  0AE7  1E0C               	btfss	12,4	;volatile
  4578  0AE8  2AEA               	goto	u164_21
  4579  0AE9  2AEB               	goto	u164_20
  4580  0AEA                     u164_21:
  4581  0AEA  2AED               	goto	i1l86
  4582  0AEB                     u164_20:
  4583  0AEB                     i1l1476:
  4584                           
  4585                           ;Sereal2.c: 243:         if (PIR1bits.TXIF);Sereal2.c: 244:         {
  4586  0AEB  3063               	movlw	99
  4587  0AEC  0099               	movwf	25	;volatile
  4588  0AED                     i1l86:	
  4589                           ;Sereal2.c: 245:             TXREG = 13;
  4590                           
  4591                           
  4592                           ;Sereal2.c: 246:         }
  4593  0AED  300D               	movlw	13
  4594  0AEE  00F1               	movwf	??i1_MENU+1
  4595  0AEF  30FB               	movlw	251
  4596  0AF0  00F0               	movwf	??i1_MENU
  4597  0AF1                     u470_27:
  4598  0AF1  0BF0               	decfsz	??i1_MENU,f
  4599  0AF2  2AF1               	goto	u470_27
  4600  0AF3  0BF1               	decfsz	??i1_MENU+1,f
  4601  0AF4  2AF1               	goto	u470_27
  4602  0AF5  2AF6               	nop2
  4603  0AF6                     i1l1478:
  4604                           
  4605                           ;Sereal2.c: 247: 
  4606  0AF6  1283               	bcf	3,5	;RP0=0, select bank0
  4607  0AF7  1303               	bcf	3,6	;RP1=0, select bank0
  4608  0AF8  1E0C               	btfss	12,4	;volatile
  4609  0AF9  2AFB               	goto	u165_21
  4610  0AFA  2AFC               	goto	u165_20
  4611  0AFB                     u165_21:
  4612  0AFB  2AFE               	goto	i1l87
  4613  0AFC                     u165_20:
  4614  0AFC                     i1l1480:
  4615                           
  4616                           ;Sereal2.c: 248: ;Sereal2.c: 249:         _delay((unsigned long)((5)*(8000000/4000.0)));
  4617  0AFC  3075               	movlw	117
  4618  0AFD  0099               	movwf	25	;volatile
  4619  0AFE                     i1l87:	
  4620                           ;Sereal2.c: 250:         if (PIR1bits.TXIF)
  4621                           
  4622                           
  4623                           ;Sereal2.c: 251:         {
  4624  0AFE  300D               	movlw	13
  4625  0AFF  00F1               	movwf	??i1_MENU+1
  4626  0B00  30FB               	movlw	251
  4627  0B01  00F0               	movwf	??i1_MENU
  4628  0B02                     u471_27:
  4629  0B02  0BF0               	decfsz	??i1_MENU,f
  4630  0B03  2B02               	goto	u471_27
  4631  0B04  0BF1               	decfsz	??i1_MENU+1,f
  4632  0B05  2B02               	goto	u471_27
  4633  0B06  2B07               	nop2
  4634  0B07                     i1l1482:
  4635                           
  4636                           ;Sereal2.c: 252:             TXREG = 40;
  4637  0B07  1283               	bcf	3,5	;RP0=0, select bank0
  4638  0B08  1303               	bcf	3,6	;RP1=0, select bank0
  4639  0B09  1E0C               	btfss	12,4	;volatile
  4640  0B0A  2B0C               	goto	u166_21
  4641  0B0B  2B0D               	goto	u166_20
  4642  0B0C                     u166_21:
  4643  0B0C  2B0F               	goto	i1l88
  4644  0B0D                     u166_20:
  4645  0B0D                     i1l1484:
  4646                           
  4647                           ;Sereal2.c: 253:         };Sereal2.c: 254:         _delay((unsigned long)((5)*(8000000/4
      +                          000.0)));
  4648  0B0D  3074               	movlw	116
  4649  0B0E  0099               	movwf	25	;volatile
  4650  0B0F                     i1l88:	
  4651                           ;Sereal2.c: 255:         if (PIR1bits.TXIF)
  4652                           
  4653                           
  4654                           ;Sereal2.c: 256:         {
  4655  0B0F  300D               	movlw	13
  4656  0B10  00F1               	movwf	??i1_MENU+1
  4657  0B11  30FB               	movlw	251
  4658  0B12  00F0               	movwf	??i1_MENU
  4659  0B13                     u472_27:
  4660  0B13  0BF0               	decfsz	??i1_MENU,f
  4661  0B14  2B13               	goto	u472_27
  4662  0B15  0BF1               	decfsz	??i1_MENU+1,f
  4663  0B16  2B13               	goto	u472_27
  4664  0B17  2B18               	nop2
  4665  0B18                     i1l1486:
  4666                           
  4667                           ;Sereal2.c: 257:             TXREG = 49;
  4668  0B18  1283               	bcf	3,5	;RP0=0, select bank0
  4669  0B19  1303               	bcf	3,6	;RP1=0, select bank0
  4670  0B1A  1E0C               	btfss	12,4	;volatile
  4671  0B1B  2B1D               	goto	u167_21
  4672  0B1C  2B1E               	goto	u167_20
  4673  0B1D                     u167_21:
  4674  0B1D  2B20               	goto	i1l89
  4675  0B1E                     u167_20:
  4676  0B1E                     i1l1488:
  4677                           
  4678                           ;Sereal2.c: 258:         };Sereal2.c: 259:         _delay((unsigned long)((5)*(8000000/4
      +                          000.0)));
  4679  0B1E  3061               	movlw	97
  4680  0B1F  0099               	movwf	25	;volatile
  4681  0B20                     i1l89:	
  4682                           ;Sereal2.c: 260:         if (PIR1bits.TXIF)
  4683                           
  4684                           
  4685                           ;Sereal2.c: 261:         {
  4686  0B20  300D               	movlw	13
  4687  0B21  00F1               	movwf	??i1_MENU+1
  4688  0B22  30FB               	movlw	251
  4689  0B23  00F0               	movwf	??i1_MENU
  4690  0B24                     u473_27:
  4691  0B24  0BF0               	decfsz	??i1_MENU,f
  4692  0B25  2B24               	goto	u473_27
  4693  0B26  0BF1               	decfsz	??i1_MENU+1,f
  4694  0B27  2B24               	goto	u473_27
  4695  0B28  2B29               	nop2
  4696  0B29                     i1l1490:
  4697                           
  4698                           ;Sereal2.c: 262:             TXREG = 41;
  4699  0B29  1283               	bcf	3,5	;RP0=0, select bank0
  4700  0B2A  1303               	bcf	3,6	;RP1=0, select bank0
  4701  0B2B  1E0C               	btfss	12,4	;volatile
  4702  0B2C  2B2E               	goto	u168_21
  4703  0B2D  2B2F               	goto	u168_20
  4704  0B2E                     u168_21:
  4705  0B2E  2B31               	goto	i1l1494
  4706  0B2F                     u168_20:
  4707  0B2F                     i1l1492:
  4708                           
  4709                           ;Sereal2.c: 263:         };Sereal2.c: 264:         _delay((unsigned long)((5)*(8000000/4
      +                          000.0)));
  4710  0B2F  3072               	movlw	114
  4711  0B30  0099               	movwf	25	;volatile
  4712  0B31                     i1l1494:
  4713                           
  4714                           ;Sereal2.c: 266:         {
  4715  0B31  1E0C               	btfss	12,4	;volatile
  4716  0B32  2B34               	goto	u169_21
  4717  0B33  2B35               	goto	u169_20
  4718  0B34                     u169_21:
  4719  0B34  2B37               	goto	i1l91
  4720  0B35                     u169_20:
  4721  0B35                     i1l1496:
  4722                           
  4723                           ;Sereal2.c: 267:             TXREG = 32;;Sereal2.c: 268:         }
  4724  0B35  303F               	movlw	63
  4725  0B36  0099               	movwf	25	;volatile
  4726  0B37                     i1l91:	
  4727                           ;Sereal2.c: 269:         _delay((unsigned long)((5)*(8000000/4000.0)));
  4728                           
  4729                           
  4730                           ;Sereal2.c: 271:         {
  4731  0B37  300D               	movlw	13
  4732  0B38  00F1               	movwf	??i1_MENU+1
  4733  0B39  30FB               	movlw	251
  4734  0B3A  00F0               	movwf	??i1_MENU
  4735  0B3B                     u474_27:
  4736  0B3B  0BF0               	decfsz	??i1_MENU,f
  4737  0B3C  2B3B               	goto	u474_27
  4738  0B3D  0BF1               	decfsz	??i1_MENU+1,f
  4739  0B3E  2B3B               	goto	u474_27
  4740  0B3F  2B40               	nop2
  4741  0B40                     i1l1498:
  4742                           
  4743                           ;Sereal2.c: 272:             TXREG = 68;
  4744  0B40  1283               	bcf	3,5	;RP0=0, select bank0
  4745  0B41  1303               	bcf	3,6	;RP1=0, select bank0
  4746  0B42  1E0C               	btfss	12,4	;volatile
  4747  0B43  2B45               	goto	u170_21
  4748  0B44  2B46               	goto	u170_20
  4749  0B45                     u170_21:
  4750  0B45  2B48               	goto	i1l92
  4751  0B46                     u170_20:
  4752  0B46                     i1l1500:
  4753                           
  4754                           ;Sereal2.c: 273:         };Sereal2.c: 274:         _delay((unsigned long)((5)*(8000000/4
      +                          000.0)));
  4755  0B46  300D               	movlw	13
  4756  0B47  0099               	movwf	25	;volatile
  4757  0B48                     i1l92:	
  4758                           ;Sereal2.c: 275:         if (PIR1bits.TXIF)
  4759                           
  4760                           
  4761                           ;Sereal2.c: 278:         }
  4762  0B48  300D               	movlw	13
  4763  0B49  00F1               	movwf	??i1_MENU+1
  4764  0B4A  30FB               	movlw	251
  4765  0B4B  00F0               	movwf	??i1_MENU
  4766  0B4C                     u475_27:
  4767  0B4C  0BF0               	decfsz	??i1_MENU,f
  4768  0B4D  2B4C               	goto	u475_27
  4769  0B4E  0BF1               	decfsz	??i1_MENU+1,f
  4770  0B4F  2B4C               	goto	u475_27
  4771  0B50  2B51               	nop2
  4772  0B51                     i1l1502:
  4773                           
  4774                           ;Sereal2.c: 279:         _delay((unsigned long)((5)*(8000000/4000.0)));
  4775  0B51  1283               	bcf	3,5	;RP0=0, select bank0
  4776  0B52  1303               	bcf	3,6	;RP1=0, select bank0
  4777  0B53  1E0C               	btfss	12,4	;volatile
  4778  0B54  2B56               	goto	u171_21
  4779  0B55  2B57               	goto	u171_20
  4780  0B56                     u171_21:
  4781  0B56  2B59               	goto	i1l93
  4782  0B57                     u171_20:
  4783  0B57                     i1l1504:
  4784                           
  4785                           ;Sereal2.c: 280:         if (PIR1bits.TXIF);Sereal2.c: 281:         {
  4786  0B57  3028               	movlw	40
  4787  0B58  0099               	movwf	25	;volatile
  4788  0B59                     i1l93:	
  4789                           ;Sereal2.c: 282:             TXREG = 115;
  4790                           
  4791                           
  4792                           ;Sereal2.c: 283:         }
  4793  0B59  300D               	movlw	13
  4794  0B5A  00F1               	movwf	??i1_MENU+1
  4795  0B5B  30FB               	movlw	251
  4796  0B5C  00F0               	movwf	??i1_MENU
  4797  0B5D                     u476_27:
  4798  0B5D  0BF0               	decfsz	??i1_MENU,f
  4799  0B5E  2B5D               	goto	u476_27
  4800  0B5F  0BF1               	decfsz	??i1_MENU+1,f
  4801  0B60  2B5D               	goto	u476_27
  4802  0B61  2B62               	nop2
  4803  0B62                     i1l1506:
  4804                           
  4805                           ;Sereal2.c: 284:         _delay((unsigned long)((5)*(8000000/4000.0)));
  4806  0B62  1283               	bcf	3,5	;RP0=0, select bank0
  4807  0B63  1303               	bcf	3,6	;RP1=0, select bank0
  4808  0B64  1E0C               	btfss	12,4	;volatile
  4809  0B65  2B67               	goto	u172_21
  4810  0B66  2B68               	goto	u172_20
  4811  0B67                     u172_21:
  4812  0B67  2B6A               	goto	i1l94
  4813  0B68                     u172_20:
  4814  0B68                     i1l1508:
  4815                           
  4816                           ;Sereal2.c: 285:         if (PIR1bits.TXIF);Sereal2.c: 286:         {
  4817  0B68  3031               	movlw	49
  4818  0B69  0099               	movwf	25	;volatile
  4819  0B6A                     i1l94:	
  4820                           ;Sereal2.c: 287:             TXREG = 112;
  4821                           
  4822                           
  4823                           ;Sereal2.c: 288:         }
  4824  0B6A  300D               	movlw	13
  4825  0B6B  00F1               	movwf	??i1_MENU+1
  4826  0B6C  30FB               	movlw	251
  4827  0B6D  00F0               	movwf	??i1_MENU
  4828  0B6E                     u477_27:
  4829  0B6E  0BF0               	decfsz	??i1_MENU,f
  4830  0B6F  2B6E               	goto	u477_27
  4831  0B70  0BF1               	decfsz	??i1_MENU+1,f
  4832  0B71  2B6E               	goto	u477_27
  4833  0B72  2B73               	nop2
  4834  0B73                     i1l1510:
  4835                           
  4836                           ;Sereal2.c: 289:         _delay((unsigned long)((5)*(8000000/4000.0)));
  4837  0B73  1283               	bcf	3,5	;RP0=0, select bank0
  4838  0B74  1303               	bcf	3,6	;RP1=0, select bank0
  4839  0B75  1E0C               	btfss	12,4	;volatile
  4840  0B76  2B78               	goto	u173_21
  4841  0B77  2B79               	goto	u173_20
  4842  0B78                     u173_21:
  4843  0B78  2B7B               	goto	i1l95
  4844  0B79                     u173_20:
  4845  0B79                     i1l1512:
  4846                           
  4847                           ;Sereal2.c: 290:         if (PIR1bits.TXIF);Sereal2.c: 291:         {
  4848  0B79  3029               	movlw	41
  4849  0B7A  0099               	movwf	25	;volatile
  4850  0B7B                     i1l95:	
  4851                           ;Sereal2.c: 292:             TXREG = 108;
  4852                           
  4853                           
  4854                           ;Sereal2.c: 293:         }
  4855  0B7B  300D               	movlw	13
  4856  0B7C  00F1               	movwf	??i1_MENU+1
  4857  0B7D  30FB               	movlw	251
  4858  0B7E  00F0               	movwf	??i1_MENU
  4859  0B7F                     u478_27:
  4860  0B7F  0BF0               	decfsz	??i1_MENU,f
  4861  0B80  2B7F               	goto	u478_27
  4862  0B81  0BF1               	decfsz	??i1_MENU+1,f
  4863  0B82  2B7F               	goto	u478_27
  4864  0B83  2B84               	nop2
  4865  0B84                     i1l1514:
  4866                           
  4867                           ;Sereal2.c: 294:         _delay((unsigned long)((5)*(8000000/4000.0)));
  4868  0B84  1283               	bcf	3,5	;RP0=0, select bank0
  4869  0B85  1303               	bcf	3,6	;RP1=0, select bank0
  4870  0B86  1E0C               	btfss	12,4	;volatile
  4871  0B87  2B89               	goto	u174_21
  4872  0B88  2B8A               	goto	u174_20
  4873  0B89                     u174_21:
  4874  0B89  2B8C               	goto	i1l96
  4875  0B8A                     u174_20:
  4876  0B8A                     i1l1516:
  4877                           
  4878                           ;Sereal2.c: 295:         if (PIR1bits.TXIF);Sereal2.c: 296:         {
  4879  0B8A  3020               	movlw	32
  4880  0B8B  0099               	movwf	25	;volatile
  4881  0B8C                     i1l96:	
  4882                           ;Sereal2.c: 297:             TXREG = 101;
  4883                           
  4884                           
  4885                           ;Sereal2.c: 298:         }
  4886  0B8C  300D               	movlw	13
  4887  0B8D  00F1               	movwf	??i1_MENU+1
  4888  0B8E  30FB               	movlw	251
  4889  0B8F  00F0               	movwf	??i1_MENU
  4890  0B90                     u479_27:
  4891  0B90  0BF0               	decfsz	??i1_MENU,f
  4892  0B91  2B90               	goto	u479_27
  4893  0B92  0BF1               	decfsz	??i1_MENU+1,f
  4894  0B93  2B90               	goto	u479_27
  4895  0B94  2B95               	nop2
  4896  0B95                     i1l1518:
  4897                           
  4898                           ;Sereal2.c: 299:         _delay((unsigned long)((5)*(8000000/4000.0)));
  4899  0B95  1283               	bcf	3,5	;RP0=0, select bank0
  4900  0B96  1303               	bcf	3,6	;RP1=0, select bank0
  4901  0B97  1E0C               	btfss	12,4	;volatile
  4902  0B98  2B9A               	goto	u175_21
  4903  0B99  2B9B               	goto	u175_20
  4904  0B9A                     u175_21:
  4905  0B9A  2B9D               	goto	i1l97
  4906  0B9B                     u175_20:
  4907  0B9B                     i1l1520:
  4908                           
  4909                           ;Sereal2.c: 300:         if (PIR1bits.TXIF);Sereal2.c: 301:         {
  4910  0B9B  3044               	movlw	68
  4911  0B9C  0099               	movwf	25	;volatile
  4912  0B9D                     i1l97:	
  4913                           ;Sereal2.c: 302:             TXREG = 103;
  4914                           
  4915                           
  4916                           ;Sereal2.c: 303:         }
  4917  0B9D  300D               	movlw	13
  4918  0B9E  00F1               	movwf	??i1_MENU+1
  4919  0B9F  30FB               	movlw	251
  4920  0BA0  00F0               	movwf	??i1_MENU
  4921  0BA1                     u480_27:
  4922  0BA1  0BF0               	decfsz	??i1_MENU,f
  4923  0BA2  2BA1               	goto	u480_27
  4924  0BA3  0BF1               	decfsz	??i1_MENU+1,f
  4925  0BA4  2BA1               	goto	u480_27
  4926  0BA5  2BA6               	nop2
  4927  0BA6                     i1l1522:
  4928                           
  4929                           ;Sereal2.c: 304:         _delay((unsigned long)((5)*(8000000/4000.0)));
  4930  0BA6  1283               	bcf	3,5	;RP0=0, select bank0
  4931  0BA7  1303               	bcf	3,6	;RP1=0, select bank0
  4932  0BA8  1E0C               	btfss	12,4	;volatile
  4933  0BA9  2BAB               	goto	u176_21
  4934  0BAA  2BAC               	goto	u176_20
  4935  0BAB                     u176_21:
  4936  0BAB  2BAE               	goto	i1l98
  4937  0BAC                     u176_20:
  4938  0BAC                     i1l1524:
  4939                           
  4940                           ;Sereal2.c: 305:         if (PIR1bits.TXIF);Sereal2.c: 306:         {
  4941  0BAC  3065               	movlw	101
  4942  0BAD  0099               	movwf	25	;volatile
  4943  0BAE                     i1l98:	
  4944                           ;Sereal2.c: 307:             TXREG = 97;
  4945                           
  4946                           
  4947                           ;Sereal2.c: 308:         }
  4948  0BAE  300D               	movlw	13
  4949  0BAF  00F1               	movwf	??i1_MENU+1
  4950  0BB0  30FB               	movlw	251
  4951  0BB1  00F0               	movwf	??i1_MENU
  4952  0BB2                     u481_27:
  4953  0BB2  0BF0               	decfsz	??i1_MENU,f
  4954  0BB3  2BB2               	goto	u481_27
  4955  0BB4  0BF1               	decfsz	??i1_MENU+1,f
  4956  0BB5  2BB2               	goto	u481_27
  4957  0BB6  2BB7               	nop2
  4958  0BB7                     i1l1526:
  4959                           
  4960                           ;Sereal2.c: 309:         _delay((unsigned long)((5)*(8000000/4000.0)));
  4961  0BB7  1283               	bcf	3,5	;RP0=0, select bank0
  4962  0BB8  1303               	bcf	3,6	;RP1=0, select bank0
  4963  0BB9  1E0C               	btfss	12,4	;volatile
  4964  0BBA  2BBC               	goto	u177_21
  4965  0BBB  2BBD               	goto	u177_20
  4966  0BBC                     u177_21:
  4967  0BBC  2BBF               	goto	i1l99
  4968  0BBD                     u177_20:
  4969  0BBD                     i1l1528:
  4970                           
  4971                           ;Sereal2.c: 310:         if (PIR1bits.TXIF);Sereal2.c: 311:         {
  4972  0BBD  3073               	movlw	115
  4973  0BBE  0099               	movwf	25	;volatile
  4974  0BBF                     i1l99:	
  4975                           ;Sereal2.c: 312:             TXREG = 114;
  4976                           
  4977                           
  4978                           ;Sereal2.c: 313:         }
  4979  0BBF  300D               	movlw	13
  4980  0BC0  00F1               	movwf	??i1_MENU+1
  4981  0BC1  30FB               	movlw	251
  4982  0BC2  00F0               	movwf	??i1_MENU
  4983  0BC3                     u482_27:
  4984  0BC3  0BF0               	decfsz	??i1_MENU,f
  4985  0BC4  2BC3               	goto	u482_27
  4986  0BC5  0BF1               	decfsz	??i1_MENU+1,f
  4987  0BC6  2BC3               	goto	u482_27
  4988  0BC7  2BC8               	nop2
  4989  0BC8                     i1l1530:
  4990                           
  4991                           ;Sereal2.c: 314:         _delay((unsigned long)((5)*(8000000/4000.0)));
  4992  0BC8  1283               	bcf	3,5	;RP0=0, select bank0
  4993  0BC9  1303               	bcf	3,6	;RP1=0, select bank0
  4994  0BCA  1E0C               	btfss	12,4	;volatile
  4995  0BCB  2BCD               	goto	u178_21
  4996  0BCC  2BCE               	goto	u178_20
  4997  0BCD                     u178_21:
  4998  0BCD  2BD0               	goto	i1l100
  4999  0BCE                     u178_20:
  5000  0BCE                     i1l1532:
  5001                           
  5002                           ;Sereal2.c: 315:         if (PIR1bits.TXIF);Sereal2.c: 316:         {
  5003  0BCE  3070               	movlw	112
  5004  0BCF  0099               	movwf	25	;volatile
  5005  0BD0                     i1l100:	
  5006                           ;Sereal2.c: 317:             TXREG = 32;
  5007                           
  5008                           
  5009                           ;Sereal2.c: 318:         }
  5010  0BD0  300D               	movlw	13
  5011  0BD1  00F1               	movwf	??i1_MENU+1
  5012  0BD2  30FB               	movlw	251
  5013  0BD3  00F0               	movwf	??i1_MENU
  5014  0BD4                     u483_27:
  5015  0BD4  0BF0               	decfsz	??i1_MENU,f
  5016  0BD5  2BD4               	goto	u483_27
  5017  0BD6  0BF1               	decfsz	??i1_MENU+1,f
  5018  0BD7  2BD4               	goto	u483_27
  5019  0BD8  2BD9               	nop2
  5020  0BD9                     i1l1534:
  5021                           
  5022                           ;Sereal2.c: 319:         _delay((unsigned long)((5)*(8000000/4000.0)));
  5023  0BD9  1283               	bcf	3,5	;RP0=0, select bank0
  5024  0BDA  1303               	bcf	3,6	;RP1=0, select bank0
  5025  0BDB  1E0C               	btfss	12,4	;volatile
  5026  0BDC  2BDE               	goto	u179_21
  5027  0BDD  2BDF               	goto	u179_20
  5028  0BDE                     u179_21:
  5029  0BDE  2BE1               	goto	i1l101
  5030  0BDF                     u179_20:
  5031  0BDF                     i1l1536:
  5032                           
  5033                           ;Sereal2.c: 320:         if (PIR1bits.TXIF);Sereal2.c: 321:         {
  5034  0BDF  306C               	movlw	108
  5035  0BE0  0099               	movwf	25	;volatile
  5036  0BE1                     i1l101:	
  5037                           ;Sereal2.c: 322:             TXREG = 99;
  5038                           
  5039                           
  5040                           ;Sereal2.c: 323:         }
  5041  0BE1  300D               	movlw	13
  5042  0BE2  00F1               	movwf	??i1_MENU+1
  5043  0BE3  30FB               	movlw	251
  5044  0BE4  00F0               	movwf	??i1_MENU
  5045  0BE5                     u484_27:
  5046  0BE5  0BF0               	decfsz	??i1_MENU,f
  5047  0BE6  2BE5               	goto	u484_27
  5048  0BE7  0BF1               	decfsz	??i1_MENU+1,f
  5049  0BE8  2BE5               	goto	u484_27
  5050  0BE9  2BEA               	nop2
  5051  0BEA                     i1l1538:
  5052                           
  5053                           ;Sereal2.c: 324:         _delay((unsigned long)((5)*(8000000/4000.0)));
  5054  0BEA  1283               	bcf	3,5	;RP0=0, select bank0
  5055  0BEB  1303               	bcf	3,6	;RP1=0, select bank0
  5056  0BEC  1E0C               	btfss	12,4	;volatile
  5057  0BED  2BEF               	goto	u180_21
  5058  0BEE  2BF0               	goto	u180_20
  5059  0BEF                     u180_21:
  5060  0BEF  2BF2               	goto	i1l102
  5061  0BF0                     u180_20:
  5062  0BF0                     i1l1540:
  5063                           
  5064                           ;Sereal2.c: 325:         if (PIR1bits.TXIF);Sereal2.c: 326:         {
  5065  0BF0  3065               	movlw	101
  5066  0BF1  0099               	movwf	25	;volatile
  5067  0BF2                     i1l102:	
  5068                           ;Sereal2.c: 327:             TXREG = 97;
  5069                           
  5070                           
  5071                           ;Sereal2.c: 328:         }
  5072  0BF2  300D               	movlw	13
  5073  0BF3  00F1               	movwf	??i1_MENU+1
  5074  0BF4  30FB               	movlw	251
  5075  0BF5  00F0               	movwf	??i1_MENU
  5076  0BF6                     u485_27:
  5077  0BF6  0BF0               	decfsz	??i1_MENU,f
  5078  0BF7  2BF6               	goto	u485_27
  5079  0BF8  0BF1               	decfsz	??i1_MENU+1,f
  5080  0BF9  2BF6               	goto	u485_27
  5081  0BFA  2BFB               	nop2
  5082  0BFB                     i1l1542:
  5083                           
  5084                           ;Sereal2.c: 329:         _delay((unsigned long)((5)*(8000000/4000.0)));
  5085  0BFB  1283               	bcf	3,5	;RP0=0, select bank0
  5086  0BFC  1303               	bcf	3,6	;RP1=0, select bank0
  5087  0BFD  1E0C               	btfss	12,4	;volatile
  5088  0BFE  2C00               	goto	u181_21
  5089  0BFF  2C01               	goto	u181_20
  5090  0C00                     u181_21:
  5091  0C00  2C03               	goto	i1l103
  5092  0C01                     u181_20:
  5093  0C01                     i1l1544:
  5094                           
  5095                           ;Sereal2.c: 330:         if (PIR1bits.TXIF);Sereal2.c: 331:         {
  5096  0C01  3067               	movlw	103
  5097  0C02  0099               	movwf	25	;volatile
  5098  0C03                     i1l103:	
  5099                           ;Sereal2.c: 332:             TXREG = 100;
  5100                           
  5101                           
  5102                           ;Sereal2.c: 333:         }
  5103  0C03  300D               	movlw	13
  5104  0C04  00F1               	movwf	??i1_MENU+1
  5105  0C05  30FB               	movlw	251
  5106  0C06  00F0               	movwf	??i1_MENU
  5107  0C07                     u486_27:
  5108  0C07  0BF0               	decfsz	??i1_MENU,f
  5109  0C08  2C07               	goto	u486_27
  5110  0C09  0BF1               	decfsz	??i1_MENU+1,f
  5111  0C0A  2C07               	goto	u486_27
  5112  0C0B  2C0C               	nop2
  5113  0C0C                     i1l1546:
  5114                           
  5115                           ;Sereal2.c: 334:         _delay((unsigned long)((5)*(8000000/4000.0)));
  5116  0C0C  1283               	bcf	3,5	;RP0=0, select bank0
  5117  0C0D  1303               	bcf	3,6	;RP1=0, select bank0
  5118  0C0E  1E0C               	btfss	12,4	;volatile
  5119  0C0F  2C11               	goto	u182_21
  5120  0C10  2C12               	goto	u182_20
  5121  0C11                     u182_21:
  5122  0C11  2C14               	goto	i1l104
  5123  0C12                     u182_20:
  5124  0C12                     i1l1548:
  5125                           
  5126                           ;Sereal2.c: 335:         if (PIR1bits.TXIF);Sereal2.c: 336:         {
  5127  0C12  3061               	movlw	97
  5128  0C13  0099               	movwf	25	;volatile
  5129  0C14                     i1l104:	
  5130                           ;Sereal2.c: 337:             TXREG = 101;
  5131                           
  5132                           
  5133                           ;Sereal2.c: 338:         }
  5134  0C14  300D               	movlw	13
  5135  0C15  00F1               	movwf	??i1_MENU+1
  5136  0C16  30FB               	movlw	251
  5137  0C17  00F0               	movwf	??i1_MENU
  5138  0C18                     u487_27:
  5139  0C18  0BF0               	decfsz	??i1_MENU,f
  5140  0C19  2C18               	goto	u487_27
  5141  0C1A  0BF1               	decfsz	??i1_MENU+1,f
  5142  0C1B  2C18               	goto	u487_27
  5143  0C1C  2C1D               	nop2
  5144  0C1D                     i1l1550:
  5145                           
  5146                           ;Sereal2.c: 339:         _delay((unsigned long)((5)*(8000000/4000.0)));
  5147  0C1D  1283               	bcf	3,5	;RP0=0, select bank0
  5148  0C1E  1303               	bcf	3,6	;RP1=0, select bank0
  5149  0C1F  1E0C               	btfss	12,4	;volatile
  5150  0C20  2C22               	goto	u183_21
  5151  0C21  2C23               	goto	u183_20
  5152  0C22                     u183_21:
  5153  0C22  2C25               	goto	i1l105
  5154  0C23                     u183_20:
  5155  0C23                     i1l1552:
  5156                           
  5157                           ;Sereal2.c: 340:         if (PIR1bits.TXIF);Sereal2.c: 341:         {
  5158  0C23  3072               	movlw	114
  5159  0C24  0099               	movwf	25	;volatile
  5160  0C25                     i1l105:	
  5161                           ;Sereal2.c: 342:             TXREG = 110;
  5162                           
  5163                           
  5164                           ;Sereal2.c: 343:         }
  5165  0C25  300D               	movlw	13
  5166  0C26  00F1               	movwf	??i1_MENU+1
  5167  0C27  30FB               	movlw	251
  5168  0C28  00F0               	movwf	??i1_MENU
  5169  0C29                     u488_27:
  5170  0C29  0BF0               	decfsz	??i1_MENU,f
  5171  0C2A  2C29               	goto	u488_27
  5172  0C2B  0BF1               	decfsz	??i1_MENU+1,f
  5173  0C2C  2C29               	goto	u488_27
  5174  0C2D  2C2E               	nop2
  5175  0C2E                     i1l1554:
  5176                           
  5177                           ;Sereal2.c: 344:         _delay((unsigned long)((5)*(8000000/4000.0)));
  5178  0C2E  1283               	bcf	3,5	;RP0=0, select bank0
  5179  0C2F  1303               	bcf	3,6	;RP1=0, select bank0
  5180  0C30  1E0C               	btfss	12,4	;volatile
  5181  0C31  2C33               	goto	u184_21
  5182  0C32  2C34               	goto	u184_20
  5183  0C33                     u184_21:
  5184  0C33  2C36               	goto	i1l106
  5185  0C34                     u184_20:
  5186  0C34                     i1l1556:
  5187                           
  5188                           ;Sereal2.c: 345:         if (PIR1bits.TXIF);Sereal2.c: 346:         {
  5189  0C34  3020               	movlw	32
  5190  0C35  0099               	movwf	25	;volatile
  5191  0C36                     i1l106:	
  5192                           ;Sereal2.c: 347:             TXREG = 97;
  5193                           
  5194                           
  5195                           ;Sereal2.c: 348:         }
  5196  0C36  300D               	movlw	13
  5197  0C37  00F1               	movwf	??i1_MENU+1
  5198  0C38  30FB               	movlw	251
  5199  0C39  00F0               	movwf	??i1_MENU
  5200  0C3A                     u489_27:
  5201  0C3A  0BF0               	decfsz	??i1_MENU,f
  5202  0C3B  2C3A               	goto	u489_27
  5203  0C3C  0BF1               	decfsz	??i1_MENU+1,f
  5204  0C3D  2C3A               	goto	u489_27
  5205  0C3E  2C3F               	nop2
  5206  0C3F                     i1l1558:
  5207                           
  5208                           ;Sereal2.c: 349:         _delay((unsigned long)((5)*(8000000/4000.0)));
  5209  0C3F  1283               	bcf	3,5	;RP0=0, select bank0
  5210  0C40  1303               	bcf	3,6	;RP1=0, select bank0
  5211  0C41  1E0C               	btfss	12,4	;volatile
  5212  0C42  2C44               	goto	u185_21
  5213  0C43  2C45               	goto	u185_20
  5214  0C44                     u185_21:
  5215  0C44  2C47               	goto	i1l107
  5216  0C45                     u185_20:
  5217  0C45                     i1l1560:
  5218                           
  5219                           ;Sereal2.c: 350:         if (PIR1bits.TXIF);Sereal2.c: 351:         {
  5220  0C45  3063               	movlw	99
  5221  0C46  0099               	movwf	25	;volatile
  5222  0C47                     i1l107:	
  5223                           ;Sereal2.c: 352:             TXREG = 32;
  5224                           
  5225                           
  5226                           ;Sereal2.c: 353:         }
  5227  0C47  300D               	movlw	13
  5228  0C48  00F1               	movwf	??i1_MENU+1
  5229  0C49  30FB               	movlw	251
  5230  0C4A  00F0               	movwf	??i1_MENU
  5231  0C4B                     u490_27:
  5232  0C4B  0BF0               	decfsz	??i1_MENU,f
  5233  0C4C  2C4B               	goto	u490_27
  5234  0C4D  0BF1               	decfsz	??i1_MENU+1,f
  5235  0C4E  2C4B               	goto	u490_27
  5236  0C4F  2C50               	nop2
  5237  0C50                     i1l1562:
  5238                           
  5239                           ;Sereal2.c: 354:         _delay((unsigned long)((5)*(8000000/4000.0)));
  5240  0C50  1283               	bcf	3,5	;RP0=0, select bank0
  5241  0C51  1303               	bcf	3,6	;RP1=0, select bank0
  5242  0C52  1E0C               	btfss	12,4	;volatile
  5243  0C53  2C55               	goto	u186_21
  5244  0C54  2C56               	goto	u186_20
  5245  0C55                     u186_21:
  5246  0C55  2C58               	goto	i1l108
  5247  0C56                     u186_20:
  5248  0C56                     i1l1564:
  5249                           
  5250                           ;Sereal2.c: 355:         if (PIR1bits.TXIF);Sereal2.c: 356:         {
  5251  0C56  3061               	movlw	97
  5252  0C57  0099               	movwf	25	;volatile
  5253  0C58                     i1l108:	
  5254                           ;Sereal2.c: 357:             TXREG = 100;
  5255                           
  5256                           
  5257                           ;Sereal2.c: 358:         }
  5258  0C58  300D               	movlw	13
  5259  0C59  00F1               	movwf	??i1_MENU+1
  5260  0C5A  30FB               	movlw	251
  5261  0C5B  00F0               	movwf	??i1_MENU
  5262  0C5C                     u491_27:
  5263  0C5C  0BF0               	decfsz	??i1_MENU,f
  5264  0C5D  2C5C               	goto	u491_27
  5265  0C5E  0BF1               	decfsz	??i1_MENU+1,f
  5266  0C5F  2C5C               	goto	u491_27
  5267  0C60  2C61               	nop2
  5268  0C61                     i1l1566:
  5269                           
  5270                           ;Sereal2.c: 359:         _delay((unsigned long)((5)*(8000000/4000.0)));
  5271  0C61  1283               	bcf	3,5	;RP0=0, select bank0
  5272  0C62  1303               	bcf	3,6	;RP1=0, select bank0
  5273  0C63  1E0C               	btfss	12,4	;volatile
  5274  0C64  2C66               	goto	u187_21
  5275  0C65  2C67               	goto	u187_20
  5276  0C66                     u187_21:
  5277  0C66  2C69               	goto	i1l109
  5278  0C67                     u187_20:
  5279  0C67                     i1l1568:
  5280                           
  5281                           ;Sereal2.c: 360:         if (PIR1bits.TXIF);Sereal2.c: 361:         {
  5282  0C67  3064               	movlw	100
  5283  0C68  0099               	movwf	25	;volatile
  5284  0C69                     i1l109:	
  5285                           ;Sereal2.c: 362:             TXREG = 101;
  5286                           
  5287                           
  5288                           ;Sereal2.c: 363:         }
  5289  0C69  300D               	movlw	13
  5290  0C6A  00F1               	movwf	??i1_MENU+1
  5291  0C6B  30FB               	movlw	251
  5292  0C6C  00F0               	movwf	??i1_MENU
  5293  0C6D                     u492_27:
  5294  0C6D  0BF0               	decfsz	??i1_MENU,f
  5295  0C6E  2C6D               	goto	u492_27
  5296  0C6F  0BF1               	decfsz	??i1_MENU+1,f
  5297  0C70  2C6D               	goto	u492_27
  5298  0C71  2C72               	nop2
  5299  0C72                     i1l1570:
  5300                           
  5301                           ;Sereal2.c: 364:         _delay((unsigned long)((5)*(8000000/4000.0)));
  5302  0C72  1283               	bcf	3,5	;RP0=0, select bank0
  5303  0C73  1303               	bcf	3,6	;RP1=0, select bank0
  5304  0C74  1E0C               	btfss	12,4	;volatile
  5305  0C75  2C77               	goto	u188_21
  5306  0C76  2C78               	goto	u188_20
  5307  0C77                     u188_21:
  5308  0C77  2C7A               	goto	i1l110
  5309  0C78                     u188_20:
  5310  0C78                     i1l1572:
  5311                           
  5312                           ;Sereal2.c: 365:         if (PIR1bits.TXIF);Sereal2.c: 366:         {
  5313  0C78  3065               	movlw	101
  5314  0C79  0099               	movwf	25	;volatile
  5315  0C7A                     i1l110:	
  5316                           ;Sereal2.c: 367:             TXREG = 32;
  5317                           
  5318                           
  5319                           ;Sereal2.c: 368:         }
  5320  0C7A  300D               	movlw	13
  5321  0C7B  00F1               	movwf	??i1_MENU+1
  5322  0C7C  30FB               	movlw	251
  5323  0C7D  00F0               	movwf	??i1_MENU
  5324  0C7E                     u493_27:
  5325  0C7E  0BF0               	decfsz	??i1_MENU,f
  5326  0C7F  2C7E               	goto	u493_27
  5327  0C80  0BF1               	decfsz	??i1_MENU+1,f
  5328  0C81  2C7E               	goto	u493_27
  5329  0C82  2C83               	nop2
  5330  0C83                     i1l1574:
  5331                           
  5332                           ;Sereal2.c: 369:         _delay((unsigned long)((5)*(8000000/4000.0)));
  5333  0C83  1283               	bcf	3,5	;RP0=0, select bank0
  5334  0C84  1303               	bcf	3,6	;RP1=0, select bank0
  5335  0C85  1E0C               	btfss	12,4	;volatile
  5336  0C86  2C88               	goto	u189_21
  5337  0C87  2C89               	goto	u189_20
  5338  0C88                     u189_21:
  5339  0C88  2C8B               	goto	i1l111
  5340  0C89                     u189_20:
  5341  0C89                     i1l1576:
  5342                           
  5343                           ;Sereal2.c: 370:         if (PIR1bits.TXIF);Sereal2.c: 371:         {
  5344  0C89  306E               	movlw	110
  5345  0C8A  0099               	movwf	25	;volatile
  5346  0C8B                     i1l111:	
  5347                           ;Sereal2.c: 372:             TXREG = 99;
  5348                           
  5349                           
  5350                           ;Sereal2.c: 373:         }
  5351  0C8B  300D               	movlw	13
  5352  0C8C  00F1               	movwf	??i1_MENU+1
  5353  0C8D  30FB               	movlw	251
  5354  0C8E  00F0               	movwf	??i1_MENU
  5355  0C8F                     u494_27:
  5356  0C8F  0BF0               	decfsz	??i1_MENU,f
  5357  0C90  2C8F               	goto	u494_27
  5358  0C91  0BF1               	decfsz	??i1_MENU+1,f
  5359  0C92  2C8F               	goto	u494_27
  5360  0C93  2C94               	nop2
  5361  0C94                     i1l1578:
  5362                           
  5363                           ;Sereal2.c: 374:         _delay((unsigned long)((5)*(8000000/4000.0)));
  5364  0C94  1283               	bcf	3,5	;RP0=0, select bank0
  5365  0C95  1303               	bcf	3,6	;RP1=0, select bank0
  5366  0C96  1E0C               	btfss	12,4	;volatile
  5367  0C97  2C99               	goto	u190_21
  5368  0C98  2C9A               	goto	u190_20
  5369  0C99                     u190_21:
  5370  0C99  2C9C               	goto	i1l112
  5371  0C9A                     u190_20:
  5372  0C9A                     i1l1580:
  5373                           
  5374                           ;Sereal2.c: 375:         if (PIR1bits.TXIF);Sereal2.c: 376:         {
  5375  0C9A  3061               	movlw	97
  5376  0C9B  0099               	movwf	25	;volatile
  5377  0C9C                     i1l112:	
  5378                           ;Sereal2.c: 377:             TXREG = 97;
  5379                           
  5380                           
  5381                           ;Sereal2.c: 378:         }
  5382  0C9C  300D               	movlw	13
  5383  0C9D  00F1               	movwf	??i1_MENU+1
  5384  0C9E  30FB               	movlw	251
  5385  0C9F  00F0               	movwf	??i1_MENU
  5386  0CA0                     u495_27:
  5387  0CA0  0BF0               	decfsz	??i1_MENU,f
  5388  0CA1  2CA0               	goto	u495_27
  5389  0CA2  0BF1               	decfsz	??i1_MENU+1,f
  5390  0CA3  2CA0               	goto	u495_27
  5391  0CA4  2CA5               	nop2
  5392  0CA5                     i1l1582:
  5393                           
  5394                           ;Sereal2.c: 379:         _delay((unsigned long)((5)*(8000000/4000.0)));
  5395  0CA5  1283               	bcf	3,5	;RP0=0, select bank0
  5396  0CA6  1303               	bcf	3,6	;RP1=0, select bank0
  5397  0CA7  1E0C               	btfss	12,4	;volatile
  5398  0CA8  2CAA               	goto	u191_21
  5399  0CA9  2CAB               	goto	u191_20
  5400  0CAA                     u191_21:
  5401  0CAA  2CAD               	goto	i1l113
  5402  0CAB                     u191_20:
  5403  0CAB                     i1l1584:
  5404                           
  5405                           ;Sereal2.c: 380:         if (PIR1bits.TXIF);Sereal2.c: 381:         {
  5406  0CAB  3020               	movlw	32
  5407  0CAC  0099               	movwf	25	;volatile
  5408  0CAD                     i1l113:	
  5409                           ;Sereal2.c: 382:             TXREG = 114;
  5410                           
  5411                           
  5412                           ;Sereal2.c: 383:         }
  5413  0CAD  300D               	movlw	13
  5414  0CAE  00F1               	movwf	??i1_MENU+1
  5415  0CAF  30FB               	movlw	251
  5416  0CB0  00F0               	movwf	??i1_MENU
  5417  0CB1                     u496_27:
  5418  0CB1  0BF0               	decfsz	??i1_MENU,f
  5419  0CB2  2CB1               	goto	u496_27
  5420  0CB3  0BF1               	decfsz	??i1_MENU+1,f
  5421  0CB4  2CB1               	goto	u496_27
  5422  0CB5  2CB6               	nop2
  5423  0CB6                     i1l1586:
  5424                           
  5425                           ;Sereal2.c: 384:         _delay((unsigned long)((5)*(8000000/4000.0)));
  5426  0CB6  1283               	bcf	3,5	;RP0=0, select bank0
  5427  0CB7  1303               	bcf	3,6	;RP1=0, select bank0
  5428  0CB8  1E0C               	btfss	12,4	;volatile
  5429  0CB9  2CBB               	goto	u192_21
  5430  0CBA  2CBC               	goto	u192_20
  5431  0CBB                     u192_21:
  5432  0CBB  2CBE               	goto	i1l114
  5433  0CBC                     u192_20:
  5434  0CBC                     i1l1588:
  5435                           
  5436                           ;Sereal2.c: 385:         if (PIR1bits.TXIF);Sereal2.c: 386:         {
  5437  0CBC  3064               	movlw	100
  5438  0CBD  0099               	movwf	25	;volatile
  5439  0CBE                     i1l114:	
  5440                           ;Sereal2.c: 387:             TXREG = 97;
  5441                           
  5442                           
  5443                           ;Sereal2.c: 388:         }
  5444  0CBE  300D               	movlw	13
  5445  0CBF  00F1               	movwf	??i1_MENU+1
  5446  0CC0  30FB               	movlw	251
  5447  0CC1  00F0               	movwf	??i1_MENU
  5448  0CC2                     u497_27:
  5449  0CC2  0BF0               	decfsz	??i1_MENU,f
  5450  0CC3  2CC2               	goto	u497_27
  5451  0CC4  0BF1               	decfsz	??i1_MENU+1,f
  5452  0CC5  2CC2               	goto	u497_27
  5453  0CC6  2CC7               	nop2
  5454  0CC7                     i1l1590:
  5455                           
  5456                           ;Sereal2.c: 389:         _delay((unsigned long)((5)*(8000000/4000.0)));
  5457  0CC7  1283               	bcf	3,5	;RP0=0, select bank0
  5458  0CC8  1303               	bcf	3,6	;RP1=0, select bank0
  5459  0CC9  1E0C               	btfss	12,4	;volatile
  5460  0CCA  2CCC               	goto	u193_21
  5461  0CCB  2CCD               	goto	u193_20
  5462  0CCC                     u193_21:
  5463  0CCC  2CCF               	goto	i1l115
  5464  0CCD                     u193_20:
  5465  0CCD                     i1l1592:
  5466                           
  5467                           ;Sereal2.c: 390:         if (PIR1bits.TXIF);Sereal2.c: 391:         {
  5468  0CCD  3065               	movlw	101
  5469  0CCE  0099               	movwf	25	;volatile
  5470  0CCF                     i1l115:	
  5471                           ;Sereal2.c: 392:             TXREG = 99;
  5472                           
  5473                           
  5474                           ;Sereal2.c: 393:         }
  5475  0CCF  300D               	movlw	13
  5476  0CD0  00F1               	movwf	??i1_MENU+1
  5477  0CD1  30FB               	movlw	251
  5478  0CD2  00F0               	movwf	??i1_MENU
  5479  0CD3                     u498_27:
  5480  0CD3  0BF0               	decfsz	??i1_MENU,f
  5481  0CD4  2CD3               	goto	u498_27
  5482  0CD5  0BF1               	decfsz	??i1_MENU+1,f
  5483  0CD6  2CD3               	goto	u498_27
  5484  0CD7  2CD8               	nop2
  5485  0CD8                     i1l1594:
  5486                           
  5487                           ;Sereal2.c: 394:         _delay((unsigned long)((5)*(8000000/4000.0)));
  5488  0CD8  1283               	bcf	3,5	;RP0=0, select bank0
  5489  0CD9  1303               	bcf	3,6	;RP1=0, select bank0
  5490  0CDA  1E0C               	btfss	12,4	;volatile
  5491  0CDB  2CDD               	goto	u194_21
  5492  0CDC  2CDE               	goto	u194_20
  5493  0CDD                     u194_21:
  5494  0CDD  2CE0               	goto	i1l116
  5495  0CDE                     u194_20:
  5496  0CDE                     i1l1596:
  5497                           
  5498                           ;Sereal2.c: 395:         if (PIR1bits.TXIF);Sereal2.c: 396:         {
  5499  0CDE  3020               	movlw	32
  5500  0CDF  0099               	movwf	25	;volatile
  5501  0CE0                     i1l116:	
  5502                           ;Sereal2.c: 397:             TXREG = 116;
  5503                           
  5504                           
  5505                           ;Sereal2.c: 398:         }
  5506  0CE0  300D               	movlw	13
  5507  0CE1  00F1               	movwf	??i1_MENU+1
  5508  0CE2  30FB               	movlw	251
  5509  0CE3  00F0               	movwf	??i1_MENU
  5510  0CE4                     u499_27:
  5511  0CE4  0BF0               	decfsz	??i1_MENU,f
  5512  0CE5  2CE4               	goto	u499_27
  5513  0CE6  0BF1               	decfsz	??i1_MENU+1,f
  5514  0CE7  2CE4               	goto	u499_27
  5515  0CE8  2CE9               	nop2
  5516  0CE9                     i1l1598:
  5517                           
  5518                           ;Sereal2.c: 399:         _delay((unsigned long)((5)*(8000000/4000.0)));
  5519  0CE9  1283               	bcf	3,5	;RP0=0, select bank0
  5520  0CEA  1303               	bcf	3,6	;RP1=0, select bank0
  5521  0CEB  1E0C               	btfss	12,4	;volatile
  5522  0CEC  2CEE               	goto	u195_21
  5523  0CED  2CEF               	goto	u195_20
  5524  0CEE                     u195_21:
  5525  0CEE  2CF1               	goto	i1l117
  5526  0CEF                     u195_20:
  5527  0CEF                     i1l1600:
  5528                           
  5529                           ;Sereal2.c: 400:         if (PIR1bits.TXIF);Sereal2.c: 401:         {
  5530  0CEF  3063               	movlw	99
  5531  0CF0  0099               	movwf	25	;volatile
  5532  0CF1                     i1l117:	
  5533                           ;Sereal2.c: 402:             TXREG = 101;
  5534                           
  5535                           
  5536                           ;Sereal2.c: 403:         }
  5537  0CF1  300D               	movlw	13
  5538  0CF2  00F1               	movwf	??i1_MENU+1
  5539  0CF3  30FB               	movlw	251
  5540  0CF4  00F0               	movwf	??i1_MENU
  5541  0CF5                     u500_27:
  5542  0CF5  0BF0               	decfsz	??i1_MENU,f
  5543  0CF6  2CF5               	goto	u500_27
  5544  0CF7  0BF1               	decfsz	??i1_MENU+1,f
  5545  0CF8  2CF5               	goto	u500_27
  5546  0CF9  2CFA               	nop2
  5547  0CFA                     i1l1602:
  5548                           
  5549                           ;Sereal2.c: 404:         _delay((unsigned long)((5)*(8000000/4000.0)));
  5550  0CFA  1283               	bcf	3,5	;RP0=0, select bank0
  5551  0CFB  1303               	bcf	3,6	;RP1=0, select bank0
  5552  0CFC  1E0C               	btfss	12,4	;volatile
  5553  0CFD  2CFF               	goto	u196_21
  5554  0CFE  2D00               	goto	u196_20
  5555  0CFF                     u196_21:
  5556  0CFF  2D02               	goto	i1l118
  5557  0D00                     u196_20:
  5558  0D00                     i1l1604:
  5559                           
  5560                           ;Sereal2.c: 405:         if (PIR1bits.TXIF);Sereal2.c: 406:         {
  5561  0D00  3061               	movlw	97
  5562  0D01  0099               	movwf	25	;volatile
  5563  0D02                     i1l118:	
  5564                           ;Sereal2.c: 407:             TXREG = 114;
  5565                           
  5566                           
  5567                           ;Sereal2.c: 408:         }
  5568  0D02  300D               	movlw	13
  5569  0D03  00F1               	movwf	??i1_MENU+1
  5570  0D04  30FB               	movlw	251
  5571  0D05  00F0               	movwf	??i1_MENU
  5572  0D06                     u501_27:
  5573  0D06  0BF0               	decfsz	??i1_MENU,f
  5574  0D07  2D06               	goto	u501_27
  5575  0D08  0BF1               	decfsz	??i1_MENU+1,f
  5576  0D09  2D06               	goto	u501_27
  5577  0D0A  2D0B               	nop2
  5578  0D0B                     i1l1606:
  5579                           
  5580                           ;Sereal2.c: 409:         _delay((unsigned long)((5)*(8000000/4000.0)));
  5581  0D0B  1283               	bcf	3,5	;RP0=0, select bank0
  5582  0D0C  1303               	bcf	3,6	;RP1=0, select bank0
  5583  0D0D  1E0C               	btfss	12,4	;volatile
  5584  0D0E  2D10               	goto	u197_21
  5585  0D0F  2D11               	goto	u197_20
  5586  0D10                     u197_21:
  5587  0D10  2D13               	goto	i1l119
  5588  0D11                     u197_20:
  5589  0D11                     i1l1608:
  5590                           
  5591                           ;Sereal2.c: 410:         if (PIR1bits.TXIF);Sereal2.c: 411:         {
  5592  0D11  3072               	movlw	114
  5593  0D12  0099               	movwf	25	;volatile
  5594  0D13                     i1l119:	
  5595                           ;Sereal2.c: 412:             TXREG = 101;
  5596                           
  5597                           
  5598                           ;Sereal2.c: 413:         }
  5599  0D13  300D               	movlw	13
  5600  0D14  00F1               	movwf	??i1_MENU+1
  5601  0D15  30FB               	movlw	251
  5602  0D16  00F0               	movwf	??i1_MENU
  5603  0D17                     u502_27:
  5604  0D17  0BF0               	decfsz	??i1_MENU,f
  5605  0D18  2D17               	goto	u502_27
  5606  0D19  0BF1               	decfsz	??i1_MENU+1,f
  5607  0D1A  2D17               	goto	u502_27
  5608  0D1B  2D1C               	nop2
  5609  0D1C                     i1l1610:
  5610                           
  5611                           ;Sereal2.c: 414:         _delay((unsigned long)((5)*(8000000/4000.0)));
  5612  0D1C  1283               	bcf	3,5	;RP0=0, select bank0
  5613  0D1D  1303               	bcf	3,6	;RP1=0, select bank0
  5614  0D1E  1E0C               	btfss	12,4	;volatile
  5615  0D1F  2D21               	goto	u198_21
  5616  0D20  2D22               	goto	u198_20
  5617  0D21                     u198_21:
  5618  0D21  2D24               	goto	i1l120
  5619  0D22                     u198_20:
  5620  0D22                     i1l1612:
  5621                           
  5622                           ;Sereal2.c: 415:         if (PIR1bits.TXIF);Sereal2.c: 416:         {
  5623  0D22  3061               	movlw	97
  5624  0D23  0099               	movwf	25	;volatile
  5625  0D24                     i1l120:	
  5626                           ;Sereal2.c: 417:             TXREG = 115;
  5627                           
  5628                           
  5629                           ;Sereal2.c: 418:         }
  5630  0D24  300D               	movlw	13
  5631  0D25  00F1               	movwf	??i1_MENU+1
  5632  0D26  30FB               	movlw	251
  5633  0D27  00F0               	movwf	??i1_MENU
  5634  0D28                     u503_27:
  5635  0D28  0BF0               	decfsz	??i1_MENU,f
  5636  0D29  2D28               	goto	u503_27
  5637  0D2A  0BF1               	decfsz	??i1_MENU+1,f
  5638  0D2B  2D28               	goto	u503_27
  5639  0D2C  2D2D               	nop2
  5640  0D2D                     i1l1614:
  5641                           
  5642                           ;Sereal2.c: 419: 
  5643  0D2D  1283               	bcf	3,5	;RP0=0, select bank0
  5644  0D2E  1303               	bcf	3,6	;RP1=0, select bank0
  5645  0D2F  1E0C               	btfss	12,4	;volatile
  5646  0D30  2D32               	goto	u199_21
  5647  0D31  2D33               	goto	u199_20
  5648  0D32                     u199_21:
  5649  0D32  2D35               	goto	i1l121
  5650  0D33                     u199_20:
  5651  0D33                     i1l1616:
  5652                           
  5653                           ;Sereal2.c: 420:         _delay((unsigned long)((5)*(8000000/4000.0)));;Sereal2.c: 421: 
      +                                  if (PIR1bits.TXIF)
  5654  0D33  3063               	movlw	99
  5655  0D34  0099               	movwf	25	;volatile
  5656  0D35                     i1l121:	
  5657                           ;Sereal2.c: 422:         {
  5658                           
  5659                           
  5660                           ;Sereal2.c: 423:             TXREG = 13;
  5661  0D35  300D               	movlw	13
  5662  0D36  00F1               	movwf	??i1_MENU+1
  5663  0D37  30FB               	movlw	251
  5664  0D38  00F0               	movwf	??i1_MENU
  5665  0D39                     u504_27:
  5666  0D39  0BF0               	decfsz	??i1_MENU,f
  5667  0D3A  2D39               	goto	u504_27
  5668  0D3B  0BF1               	decfsz	??i1_MENU+1,f
  5669  0D3C  2D39               	goto	u504_27
  5670  0D3D  2D3E               	nop2
  5671  0D3E                     i1l1618:
  5672                           
  5673                           ;Sereal2.c: 424:         }
  5674  0D3E  1283               	bcf	3,5	;RP0=0, select bank0
  5675  0D3F  1303               	bcf	3,6	;RP1=0, select bank0
  5676  0D40  1E0C               	btfss	12,4	;volatile
  5677  0D41  2D43               	goto	u200_21
  5678  0D42  2D44               	goto	u200_20
  5679  0D43                     u200_21:
  5680  0D43  2D46               	goto	i1l122
  5681  0D44                     u200_20:
  5682  0D44                     i1l1620:
  5683                           
  5684                           ;Sereal2.c: 425: ;Sereal2.c: 426:         _delay((unsigned long)((5)*(8000000/4000.0)));
  5685  0D44  3074               	movlw	116
  5686  0D45  0099               	movwf	25	;volatile
  5687  0D46                     i1l122:	
  5688                           ;Sereal2.c: 427:         if (PIR1bits.TXIF)
  5689                           
  5690                           
  5691                           ;Sereal2.c: 428:         {
  5692  0D46  300D               	movlw	13
  5693  0D47  00F1               	movwf	??i1_MENU+1
  5694  0D48  30FB               	movlw	251
  5695  0D49  00F0               	movwf	??i1_MENU
  5696  0D4A                     u505_27:
  5697  0D4A  0BF0               	decfsz	??i1_MENU,f
  5698  0D4B  2D4A               	goto	u505_27
  5699  0D4C  0BF1               	decfsz	??i1_MENU+1,f
  5700  0D4D  2D4A               	goto	u505_27
  5701  0D4E  2D4F               	nop2
  5702  0D4F                     i1l1622:
  5703                           
  5704                           ;Sereal2.c: 429:             TXREG = 40;
  5705  0D4F  1283               	bcf	3,5	;RP0=0, select bank0
  5706  0D50  1303               	bcf	3,6	;RP1=0, select bank0
  5707  0D51  1E0C               	btfss	12,4	;volatile
  5708  0D52  2D54               	goto	u201_21
  5709  0D53  2D55               	goto	u201_20
  5710  0D54                     u201_21:
  5711  0D54  2D57               	goto	i1l123
  5712  0D55                     u201_20:
  5713  0D55                     i1l1624:
  5714                           
  5715                           ;Sereal2.c: 430:         };Sereal2.c: 431:         _delay((unsigned long)((5)*(8000000/4
      +                          000.0)));
  5716  0D55  3065               	movlw	101
  5717  0D56  0099               	movwf	25	;volatile
  5718  0D57                     i1l123:	
  5719                           ;Sereal2.c: 432:         if (PIR1bits.TXIF)
  5720                           
  5721                           
  5722                           ;Sereal2.c: 433:         {
  5723  0D57  300D               	movlw	13
  5724  0D58  00F1               	movwf	??i1_MENU+1
  5725  0D59  30FB               	movlw	251
  5726  0D5A  00F0               	movwf	??i1_MENU
  5727  0D5B                     u506_27:
  5728  0D5B  0BF0               	decfsz	??i1_MENU,f
  5729  0D5C  2D5B               	goto	u506_27
  5730  0D5D  0BF1               	decfsz	??i1_MENU+1,f
  5731  0D5E  2D5B               	goto	u506_27
  5732  0D5F  2D60               	nop2
  5733  0D60                     i1l1626:
  5734                           
  5735                           ;Sereal2.c: 434:             TXREG = 50;
  5736  0D60  1283               	bcf	3,5	;RP0=0, select bank0
  5737  0D61  1303               	bcf	3,6	;RP1=0, select bank0
  5738  0D62  1E0C               	btfss	12,4	;volatile
  5739  0D63  2D65               	goto	u202_21
  5740  0D64  2D66               	goto	u202_20
  5741  0D65                     u202_21:
  5742  0D65  2D68               	goto	i1l124
  5743  0D66                     u202_20:
  5744  0D66                     i1l1628:
  5745                           
  5746                           ;Sereal2.c: 435:         };Sereal2.c: 436:         _delay((unsigned long)((5)*(8000000/4
      +                          000.0)));
  5747  0D66  3072               	movlw	114
  5748  0D67  0099               	movwf	25	;volatile
  5749  0D68                     i1l124:	
  5750                           ;Sereal2.c: 437:         if (PIR1bits.TXIF)
  5751                           
  5752                           
  5753                           ;Sereal2.c: 438:         {
  5754  0D68  300D               	movlw	13
  5755  0D69  00F1               	movwf	??i1_MENU+1
  5756  0D6A  30FB               	movlw	251
  5757  0D6B  00F0               	movwf	??i1_MENU
  5758  0D6C                     u507_27:
  5759  0D6C  0BF0               	decfsz	??i1_MENU,f
  5760  0D6D  2D6C               	goto	u507_27
  5761  0D6E  0BF1               	decfsz	??i1_MENU+1,f
  5762  0D6F  2D6C               	goto	u507_27
  5763  0D70  2D71               	nop2
  5764  0D71                     i1l1630:
  5765                           
  5766                           ;Sereal2.c: 439:             TXREG = 41;
  5767  0D71  1283               	bcf	3,5	;RP0=0, select bank0
  5768  0D72  1303               	bcf	3,6	;RP1=0, select bank0
  5769  0D73  1E0C               	btfss	12,4	;volatile
  5770  0D74  2D76               	goto	u203_21
  5771  0D75  2D77               	goto	u203_20
  5772  0D76                     u203_21:
  5773  0D76  2D79               	goto	i1l125
  5774  0D77                     u203_20:
  5775  0D77                     i1l1632:
  5776                           
  5777                           ;Sereal2.c: 440:         };Sereal2.c: 441:         _delay((unsigned long)((5)*(8000000/4
      +                          000.0)));
  5778  0D77  3065               	movlw	101
  5779  0D78  0099               	movwf	25	;volatile
  5780  0D79                     i1l125:	
  5781                           ;Sereal2.c: 442:         if (PIR1bits.TXIF)
  5782                           
  5783                           
  5784                           ;Sereal2.c: 443:         {
  5785  0D79  300D               	movlw	13
  5786  0D7A  00F1               	movwf	??i1_MENU+1
  5787  0D7B  30FB               	movlw	251
  5788  0D7C  00F0               	movwf	??i1_MENU
  5789  0D7D                     u508_27:
  5790  0D7D  0BF0               	decfsz	??i1_MENU,f
  5791  0D7E  2D7D               	goto	u508_27
  5792  0D7F  0BF1               	decfsz	??i1_MENU+1,f
  5793  0D80  2D7D               	goto	u508_27
  5794  0D81  2D82               	nop2
  5795  0D82                     i1l1634:
  5796                           
  5797                           ;Sereal2.c: 444:             TXREG = 32;
  5798  0D82  1283               	bcf	3,5	;RP0=0, select bank0
  5799  0D83  1303               	bcf	3,6	;RP1=0, select bank0
  5800  0D84  1E0C               	btfss	12,4	;volatile
  5801  0D85  2D87               	goto	u204_21
  5802  0D86  2D88               	goto	u204_20
  5803  0D87                     u204_21:
  5804  0D87  2D8A               	goto	i1l126
  5805  0D88                     u204_20:
  5806  0D88                     i1l1636:
  5807                           
  5808                           ;Sereal2.c: 445:         };Sereal2.c: 446:         _delay((unsigned long)((5)*(8000000/4
      +                          000.0)));
  5809  0D88  3073               	movlw	115
  5810  0D89  0099               	movwf	25	;volatile
  5811  0D8A                     i1l126:	
  5812                           ;Sereal2.c: 447:         if (PIR1bits.TXIF)
  5813                           
  5814                           
  5815                           ;Sereal2.c: 449:             TXREG = 67;
  5816  0D8A  300D               	movlw	13
  5817  0D8B  00F1               	movwf	??i1_MENU+1
  5818  0D8C  30FB               	movlw	251
  5819  0D8D  00F0               	movwf	??i1_MENU
  5820  0D8E                     u509_27:
  5821  0D8E  0BF0               	decfsz	??i1_MENU,f
  5822  0D8F  2D8E               	goto	u509_27
  5823  0D90  0BF1               	decfsz	??i1_MENU+1,f
  5824  0D91  2D8E               	goto	u509_27
  5825  0D92  2D93               	nop2
  5826  0D93                     i1l1638:
  5827                           
  5828                           ;Sereal2.c: 450:         }
  5829  0D93  1283               	bcf	3,5	;RP0=0, select bank0
  5830  0D94  1303               	bcf	3,6	;RP1=0, select bank0
  5831  0D95  1E0C               	btfss	12,4	;volatile
  5832  0D96  2D98               	goto	u205_21
  5833  0D97  2D99               	goto	u205_20
  5834  0D98                     u205_21:
  5835  0D98  2D9B               	goto	i1l127
  5836  0D99                     u205_20:
  5837  0D99                     i1l1640:
  5838                           
  5839                           ;Sereal2.c: 451:         _delay((unsigned long)((5)*(8000000/4000.0)));;Sereal2.c: 452: 
      +                                  if (PIR1bits.TXIF)
  5840  0D99  300D               	movlw	13
  5841  0D9A  0099               	movwf	25	;volatile
  5842  0D9B                     i1l127:	
  5843                           ;Sereal2.c: 453:         {
  5844                           
  5845                           
  5846                           ;Sereal2.c: 455:         }
  5847  0D9B  300D               	movlw	13
  5848  0D9C  00F1               	movwf	??i1_MENU+1
  5849  0D9D  30FB               	movlw	251
  5850  0D9E  00F0               	movwf	??i1_MENU
  5851  0D9F                     u510_27:
  5852  0D9F  0BF0               	decfsz	??i1_MENU,f
  5853  0DA0  2D9F               	goto	u510_27
  5854  0DA1  0BF1               	decfsz	??i1_MENU+1,f
  5855  0DA2  2D9F               	goto	u510_27
  5856  0DA3  2DA4               	nop2
  5857  0DA4                     i1l1642:
  5858                           
  5859                           ;Sereal2.c: 456:         _delay((unsigned long)((5)*(8000000/4000.0)));
  5860  0DA4  1283               	bcf	3,5	;RP0=0, select bank0
  5861  0DA5  1303               	bcf	3,6	;RP1=0, select bank0
  5862  0DA6  1E0C               	btfss	12,4	;volatile
  5863  0DA7  2DA9               	goto	u206_21
  5864  0DA8  2DAA               	goto	u206_20
  5865  0DA9                     u206_21:
  5866  0DA9  2DAC               	goto	i1l128
  5867  0DAA                     u206_20:
  5868  0DAA                     i1l1644:
  5869                           
  5870                           ;Sereal2.c: 457:         if (PIR1bits.TXIF);Sereal2.c: 458:         {
  5871  0DAA  3028               	movlw	40
  5872  0DAB  0099               	movwf	25	;volatile
  5873  0DAC                     i1l128:	
  5874                           ;Sereal2.c: 459:             TXREG = 109;
  5875                           
  5876                           
  5877                           ;Sereal2.c: 460:         }
  5878  0DAC  300D               	movlw	13
  5879  0DAD  00F1               	movwf	??i1_MENU+1
  5880  0DAE  30FB               	movlw	251
  5881  0DAF  00F0               	movwf	??i1_MENU
  5882  0DB0                     u511_27:
  5883  0DB0  0BF0               	decfsz	??i1_MENU,f
  5884  0DB1  2DB0               	goto	u511_27
  5885  0DB2  0BF1               	decfsz	??i1_MENU+1,f
  5886  0DB3  2DB0               	goto	u511_27
  5887  0DB4  2DB5               	nop2
  5888  0DB5                     i1l1646:
  5889                           
  5890                           ;Sereal2.c: 461:         _delay((unsigned long)((5)*(8000000/4000.0)));
  5891  0DB5  1283               	bcf	3,5	;RP0=0, select bank0
  5892  0DB6  1303               	bcf	3,6	;RP1=0, select bank0
  5893  0DB7  1E0C               	btfss	12,4	;volatile
  5894  0DB8  2DBA               	goto	u207_21
  5895  0DB9  2DBB               	goto	u207_20
  5896  0DBA                     u207_21:
  5897  0DBA  2DBD               	goto	i1l129
  5898  0DBB                     u207_20:
  5899  0DBB                     i1l1648:
  5900                           
  5901                           ;Sereal2.c: 462:         if (PIR1bits.TXIF);Sereal2.c: 463:         {
  5902  0DBB  3032               	movlw	50
  5903  0DBC  0099               	movwf	25	;volatile
  5904  0DBD                     i1l129:	
  5905                           ;Sereal2.c: 464:             TXREG = 98;
  5906                           
  5907                           
  5908                           ;Sereal2.c: 465:         }
  5909  0DBD  300D               	movlw	13
  5910  0DBE  00F1               	movwf	??i1_MENU+1
  5911  0DBF  30FB               	movlw	251
  5912  0DC0  00F0               	movwf	??i1_MENU
  5913  0DC1                     u512_27:
  5914  0DC1  0BF0               	decfsz	??i1_MENU,f
  5915  0DC2  2DC1               	goto	u512_27
  5916  0DC3  0BF1               	decfsz	??i1_MENU+1,f
  5917  0DC4  2DC1               	goto	u512_27
  5918  0DC5  2DC6               	nop2
  5919  0DC6                     i1l1650:
  5920                           
  5921                           ;Sereal2.c: 466:         _delay((unsigned long)((5)*(8000000/4000.0)));
  5922  0DC6  1283               	bcf	3,5	;RP0=0, select bank0
  5923  0DC7  1303               	bcf	3,6	;RP1=0, select bank0
  5924  0DC8  1E0C               	btfss	12,4	;volatile
  5925  0DC9  2DCB               	goto	u208_21
  5926  0DCA  2DCC               	goto	u208_20
  5927  0DCB                     u208_21:
  5928  0DCB  2DCE               	goto	i1l130
  5929  0DCC                     u208_20:
  5930  0DCC                     i1l1652:
  5931                           
  5932                           ;Sereal2.c: 467:         if (PIR1bits.TXIF);Sereal2.c: 468:         {
  5933  0DCC  3029               	movlw	41
  5934  0DCD  0099               	movwf	25	;volatile
  5935  0DCE                     i1l130:	
  5936                           ;Sereal2.c: 469:             TXREG = 105;
  5937                           
  5938                           
  5939                           ;Sereal2.c: 470:         }
  5940  0DCE  300D               	movlw	13
  5941  0DCF  00F1               	movwf	??i1_MENU+1
  5942  0DD0  30FB               	movlw	251
  5943  0DD1  00F0               	movwf	??i1_MENU
  5944  0DD2                     u513_27:
  5945  0DD2  0BF0               	decfsz	??i1_MENU,f
  5946  0DD3  2DD2               	goto	u513_27
  5947  0DD4  0BF1               	decfsz	??i1_MENU+1,f
  5948  0DD5  2DD2               	goto	u513_27
  5949  0DD6  2DD7               	nop2
  5950  0DD7                     i1l1654:
  5951                           
  5952                           ;Sereal2.c: 471:         _delay((unsigned long)((5)*(8000000/4000.0)));
  5953  0DD7  1283               	bcf	3,5	;RP0=0, select bank0
  5954  0DD8  1303               	bcf	3,6	;RP1=0, select bank0
  5955  0DD9  1E0C               	btfss	12,4	;volatile
  5956  0DDA  2DDC               	goto	u209_21
  5957  0DDB  2DDD               	goto	u209_20
  5958  0DDC                     u209_21:
  5959  0DDC  2DDF               	goto	i1l131
  5960  0DDD                     u209_20:
  5961  0DDD                     i1l1656:
  5962                           
  5963                           ;Sereal2.c: 472:         if (PIR1bits.TXIF);Sereal2.c: 473:         {
  5964  0DDD  3020               	movlw	32
  5965  0DDE  0099               	movwf	25	;volatile
  5966  0DDF                     i1l131:	
  5967                           ;Sereal2.c: 474:             TXREG = 97;
  5968                           
  5969                           
  5970                           ;Sereal2.c: 475:         }
  5971  0DDF  300D               	movlw	13
  5972  0DE0  00F1               	movwf	??i1_MENU+1
  5973  0DE1  30FB               	movlw	251
  5974  0DE2  00F0               	movwf	??i1_MENU
  5975  0DE3                     u514_27:
  5976  0DE3  0BF0               	decfsz	??i1_MENU,f
  5977  0DE4  2DE3               	goto	u514_27
  5978  0DE5  0BF1               	decfsz	??i1_MENU+1,f
  5979  0DE6  2DE3               	goto	u514_27
  5980  0DE7  2DE8               	nop2
  5981  0DE8                     i1l1658:
  5982                           
  5983                           ;Sereal2.c: 476:         _delay((unsigned long)((5)*(8000000/4000.0)));
  5984  0DE8  1283               	bcf	3,5	;RP0=0, select bank0
  5985  0DE9  1303               	bcf	3,6	;RP1=0, select bank0
  5986  0DEA  1E0C               	btfss	12,4	;volatile
  5987  0DEB  2DED               	goto	u210_21
  5988  0DEC  2DEE               	goto	u210_20
  5989  0DED                     u210_21:
  5990  0DED  2DF0               	goto	i1l132
  5991  0DEE                     u210_20:
  5992  0DEE                     i1l1660:
  5993                           
  5994                           ;Sereal2.c: 477:         if (PIR1bits.TXIF);Sereal2.c: 478:         {
  5995  0DEE  3043               	movlw	67
  5996  0DEF  0099               	movwf	25	;volatile
  5997  0DF0                     i1l132:	
  5998                           ;Sereal2.c: 479:             TXREG = 114;
  5999                           
  6000                           
  6001                           ;Sereal2.c: 480:         }
  6002  0DF0  300D               	movlw	13
  6003  0DF1  00F1               	movwf	??i1_MENU+1
  6004  0DF2  30FB               	movlw	251
  6005  0DF3  00F0               	movwf	??i1_MENU
  6006  0DF4                     u515_27:
  6007  0DF4  0BF0               	decfsz	??i1_MENU,f
  6008  0DF5  2DF4               	goto	u515_27
  6009  0DF6  0BF1               	decfsz	??i1_MENU+1,f
  6010  0DF7  2DF4               	goto	u515_27
  6011  0DF8  2DF9               	nop2
  6012  0DF9                     i1l1662:
  6013                           
  6014                           ;Sereal2.c: 481:         _delay((unsigned long)((5)*(8000000/4000.0)));
  6015  0DF9  1283               	bcf	3,5	;RP0=0, select bank0
  6016  0DFA  1303               	bcf	3,6	;RP1=0, select bank0
  6017  0DFB  1E0C               	btfss	12,4	;volatile
  6018  0DFC  2DFE               	goto	u211_21
  6019  0DFD  2DFF               	goto	u211_20
  6020  0DFE                     u211_21:
  6021  0DFE  2E01               	goto	i1l133
  6022  0DFF                     u211_20:
  6023  0DFF                     i1l1664:
  6024                           
  6025                           ;Sereal2.c: 482:         if (PIR1bits.TXIF);Sereal2.c: 483:         {
  6026  0DFF  3061               	movlw	97
  6027  0E00  0099               	movwf	25	;volatile
  6028  0E01                     i1l133:	
  6029                           ;Sereal2.c: 484:             TXREG = 32;
  6030                           
  6031                           
  6032                           ;Sereal2.c: 485:         }
  6033  0E01  300D               	movlw	13
  6034  0E02  00F1               	movwf	??i1_MENU+1
  6035  0E03  30FB               	movlw	251
  6036  0E04  00F0               	movwf	??i1_MENU
  6037  0E05                     u516_27:
  6038  0E05  0BF0               	decfsz	??i1_MENU,f
  6039  0E06  2E05               	goto	u516_27
  6040  0E07  0BF1               	decfsz	??i1_MENU+1,f
  6041  0E08  2E05               	goto	u516_27
  6042  0E09  2E0A               	nop2
  6043  0E0A                     i1l1666:
  6044                           
  6045                           ;Sereal2.c: 486:         _delay((unsigned long)((5)*(8000000/4000.0)));
  6046  0E0A  1283               	bcf	3,5	;RP0=0, select bank0
  6047  0E0B  1303               	bcf	3,6	;RP1=0, select bank0
  6048  0E0C  1E0C               	btfss	12,4	;volatile
  6049  0E0D  2E0F               	goto	u212_21
  6050  0E0E  2E10               	goto	u212_20
  6051  0E0F                     u212_21:
  6052  0E0F  2E12               	goto	i1l134
  6053  0E10                     u212_20:
  6054  0E10                     i1l1668:
  6055                           
  6056                           ;Sereal2.c: 487:         if (PIR1bits.TXIF);Sereal2.c: 488:         {
  6057  0E10  306D               	movlw	109
  6058  0E11  0099               	movwf	25	;volatile
  6059  0E12                     i1l134:	
  6060                           ;Sereal2.c: 489:             TXREG = 80;
  6061                           
  6062                           
  6063                           ;Sereal2.c: 490:         }
  6064  0E12  300D               	movlw	13
  6065  0E13  00F1               	movwf	??i1_MENU+1
  6066  0E14  30FB               	movlw	251
  6067  0E15  00F0               	movwf	??i1_MENU
  6068  0E16                     u517_27:
  6069  0E16  0BF0               	decfsz	??i1_MENU,f
  6070  0E17  2E16               	goto	u517_27
  6071  0E18  0BF1               	decfsz	??i1_MENU+1,f
  6072  0E19  2E16               	goto	u517_27
  6073  0E1A  2E1B               	nop2
  6074  0E1B                     i1l1670:
  6075                           
  6076                           ;Sereal2.c: 491:         _delay((unsigned long)((5)*(8000000/4000.0)));
  6077  0E1B  1283               	bcf	3,5	;RP0=0, select bank0
  6078  0E1C  1303               	bcf	3,6	;RP1=0, select bank0
  6079  0E1D  1E0C               	btfss	12,4	;volatile
  6080  0E1E  2E20               	goto	u213_21
  6081  0E1F  2E21               	goto	u213_20
  6082  0E20                     u213_21:
  6083  0E20  2E23               	goto	i1l135
  6084  0E21                     u213_20:
  6085  0E21                     i1l1672:
  6086                           
  6087                           ;Sereal2.c: 492:         if (PIR1bits.TXIF);Sereal2.c: 493:         {
  6088  0E21  3062               	movlw	98
  6089  0E22  0099               	movwf	25	;volatile
  6090  0E23                     i1l135:	
  6091                           ;Sereal2.c: 494:             TXREG = 79;
  6092                           
  6093                           
  6094                           ;Sereal2.c: 495:         }
  6095  0E23  300D               	movlw	13
  6096  0E24  00F1               	movwf	??i1_MENU+1
  6097  0E25  30FB               	movlw	251
  6098  0E26  00F0               	movwf	??i1_MENU
  6099  0E27                     u518_27:
  6100  0E27  0BF0               	decfsz	??i1_MENU,f
  6101  0E28  2E27               	goto	u518_27
  6102  0E29  0BF1               	decfsz	??i1_MENU+1,f
  6103  0E2A  2E27               	goto	u518_27
  6104  0E2B  2E2C               	nop2
  6105  0E2C                     i1l1674:
  6106                           
  6107                           ;Sereal2.c: 496:         _delay((unsigned long)((5)*(8000000/4000.0)));
  6108  0E2C  1283               	bcf	3,5	;RP0=0, select bank0
  6109  0E2D  1303               	bcf	3,6	;RP1=0, select bank0
  6110  0E2E  1E0C               	btfss	12,4	;volatile
  6111  0E2F  2E31               	goto	u214_21
  6112  0E30  2E32               	goto	u214_20
  6113  0E31                     u214_21:
  6114  0E31  2E34               	goto	i1l136
  6115  0E32                     u214_20:
  6116  0E32                     i1l1676:
  6117                           
  6118                           ;Sereal2.c: 497:         if (PIR1bits.TXIF);Sereal2.c: 498:         {
  6119  0E32  3069               	movlw	105
  6120  0E33  0099               	movwf	25	;volatile
  6121  0E34                     i1l136:	
  6122                           ;Sereal2.c: 499:             TXREG = 82;
  6123                           
  6124                           
  6125                           ;Sereal2.c: 500:         }
  6126  0E34  300D               	movlw	13
  6127  0E35  00F1               	movwf	??i1_MENU+1
  6128  0E36  30FB               	movlw	251
  6129  0E37  00F0               	movwf	??i1_MENU
  6130  0E38                     u519_27:
  6131  0E38  0BF0               	decfsz	??i1_MENU,f
  6132  0E39  2E38               	goto	u519_27
  6133  0E3A  0BF1               	decfsz	??i1_MENU+1,f
  6134  0E3B  2E38               	goto	u519_27
  6135  0E3C  2E3D               	nop2
  6136  0E3D                     i1l1678:
  6137                           
  6138                           ;Sereal2.c: 501:         _delay((unsigned long)((5)*(8000000/4000.0)));
  6139  0E3D  1283               	bcf	3,5	;RP0=0, select bank0
  6140  0E3E  1303               	bcf	3,6	;RP1=0, select bank0
  6141  0E3F  1E0C               	btfss	12,4	;volatile
  6142  0E40  2E42               	goto	u215_21
  6143  0E41  2E43               	goto	u215_20
  6144  0E42                     u215_21:
  6145  0E42  2E45               	goto	i1l137
  6146  0E43                     u215_20:
  6147  0E43                     i1l1680:
  6148                           
  6149                           ;Sereal2.c: 502:         if (PIR1bits.TXIF);Sereal2.c: 503:         {
  6150  0E43  3061               	movlw	97
  6151  0E44  0099               	movwf	25	;volatile
  6152  0E45                     i1l137:	
  6153                           ;Sereal2.c: 504:             TXREG = 84;
  6154                           
  6155                           
  6156                           ;Sereal2.c: 505:         }
  6157  0E45  300D               	movlw	13
  6158  0E46  00F1               	movwf	??i1_MENU+1
  6159  0E47  30FB               	movlw	251
  6160  0E48  00F0               	movwf	??i1_MENU
  6161  0E49                     u520_27:
  6162  0E49  0BF0               	decfsz	??i1_MENU,f
  6163  0E4A  2E49               	goto	u520_27
  6164  0E4B  0BF1               	decfsz	??i1_MENU+1,f
  6165  0E4C  2E49               	goto	u520_27
  6166  0E4D  2E4E               	nop2
  6167  0E4E                     i1l1682:
  6168                           
  6169                           ;Sereal2.c: 506:         _delay((unsigned long)((5)*(8000000/4000.0)));
  6170  0E4E  1283               	bcf	3,5	;RP0=0, select bank0
  6171  0E4F  1303               	bcf	3,6	;RP1=0, select bank0
  6172  0E50  1E0C               	btfss	12,4	;volatile
  6173  0E51  2E53               	goto	u216_21
  6174  0E52  2E54               	goto	u216_20
  6175  0E53                     u216_21:
  6176  0E53  2E56               	goto	i1l138
  6177  0E54                     u216_20:
  6178  0E54                     i1l1684:
  6179                           
  6180                           ;Sereal2.c: 507:         if (PIR1bits.TXIF);Sereal2.c: 508:         {
  6181  0E54  3072               	movlw	114
  6182  0E55  0099               	movwf	25	;volatile
  6183  0E56                     i1l138:	
  6184                           ;Sereal2.c: 509:             TXREG = 65;
  6185                           
  6186                           
  6187                           ;Sereal2.c: 510:         }
  6188  0E56  300D               	movlw	13
  6189  0E57  00F1               	movwf	??i1_MENU+1
  6190  0E58  30FB               	movlw	251
  6191  0E59  00F0               	movwf	??i1_MENU
  6192  0E5A                     u521_27:
  6193  0E5A  0BF0               	decfsz	??i1_MENU,f
  6194  0E5B  2E5A               	goto	u521_27
  6195  0E5C  0BF1               	decfsz	??i1_MENU+1,f
  6196  0E5D  2E5A               	goto	u521_27
  6197  0E5E  2E5F               	nop2
  6198  0E5F                     i1l1686:
  6199                           
  6200                           ;Sereal2.c: 511:         _delay((unsigned long)((5)*(8000000/4000.0)));
  6201  0E5F  1283               	bcf	3,5	;RP0=0, select bank0
  6202  0E60  1303               	bcf	3,6	;RP1=0, select bank0
  6203  0E61  1E0C               	btfss	12,4	;volatile
  6204  0E62  2E64               	goto	u217_21
  6205  0E63  2E65               	goto	u217_20
  6206  0E64                     u217_21:
  6207  0E64  2E67               	goto	i1l139
  6208  0E65                     u217_20:
  6209  0E65                     i1l1688:
  6210                           
  6211                           ;Sereal2.c: 512:         if (PIR1bits.TXIF);Sereal2.c: 513:         {
  6212  0E65  3020               	movlw	32
  6213  0E66  0099               	movwf	25	;volatile
  6214  0E67                     i1l139:	
  6215                           ;Sereal2.c: 514:             TXREG = 13;
  6216                           
  6217                           
  6218                           ;Sereal2.c: 515:         }
  6219  0E67  300D               	movlw	13
  6220  0E68  00F1               	movwf	??i1_MENU+1
  6221  0E69  30FB               	movlw	251
  6222  0E6A  00F0               	movwf	??i1_MENU
  6223  0E6B                     u522_27:
  6224  0E6B  0BF0               	decfsz	??i1_MENU,f
  6225  0E6C  2E6B               	goto	u522_27
  6226  0E6D  0BF1               	decfsz	??i1_MENU+1,f
  6227  0E6E  2E6B               	goto	u522_27
  6228  0E6F  2E70               	nop2
  6229  0E70                     i1l1690:
  6230                           
  6231                           ;Sereal2.c: 516: 
  6232  0E70  1283               	bcf	3,5	;RP0=0, select bank0
  6233  0E71  1303               	bcf	3,6	;RP1=0, select bank0
  6234  0E72  1E0C               	btfss	12,4	;volatile
  6235  0E73  2E75               	goto	u218_21
  6236  0E74  2E76               	goto	u218_20
  6237  0E75                     u218_21:
  6238  0E75  2E78               	goto	i1l140
  6239  0E76                     u218_20:
  6240  0E76                     i1l1692:
  6241                           
  6242                           ;Sereal2.c: 517: ;Sereal2.c: 518: 
  6243  0E76  3050               	movlw	80
  6244  0E77  0099               	movwf	25	;volatile
  6245  0E78                     i1l140:	
  6246                           ;Sereal2.c: 519:         _delay((unsigned long)((5)*(8000000/4000.0)));
  6247                           
  6248                           
  6249                           ;Sereal2.c: 520:         if (PIR1bits.TXIF)
  6250  0E78  300D               	movlw	13
  6251  0E79  00F1               	movwf	??i1_MENU+1
  6252  0E7A  30FB               	movlw	251
  6253  0E7B  00F0               	movwf	??i1_MENU
  6254  0E7C                     u523_27:
  6255  0E7C  0BF0               	decfsz	??i1_MENU,f
  6256  0E7D  2E7C               	goto	u523_27
  6257  0E7E  0BF1               	decfsz	??i1_MENU+1,f
  6258  0E7F  2E7C               	goto	u523_27
  6259  0E80  2E81               	nop2
  6260  0E81                     i1l1694:
  6261                           
  6262                           ;Sereal2.c: 521:         {
  6263  0E81  1283               	bcf	3,5	;RP0=0, select bank0
  6264  0E82  1303               	bcf	3,6	;RP1=0, select bank0
  6265  0E83  1E0C               	btfss	12,4	;volatile
  6266  0E84  2E86               	goto	u219_21
  6267  0E85  2E87               	goto	u219_20
  6268  0E86                     u219_21:
  6269  0E86  2E89               	goto	i1l141
  6270  0E87                     u219_20:
  6271  0E87                     i1l1696:
  6272                           
  6273                           ;Sereal2.c: 522:             TXREG = 40;;Sereal2.c: 523:         }
  6274  0E87  304F               	movlw	79
  6275  0E88  0099               	movwf	25	;volatile
  6276  0E89                     i1l141:	
  6277                           ;Sereal2.c: 524:         _delay((unsigned long)((5)*(8000000/4000.0)));
  6278                           
  6279                           
  6280                           ;Sereal2.c: 525:         if (PIR1bits.TXIF)
  6281  0E89  300D               	movlw	13
  6282  0E8A  00F1               	movwf	??i1_MENU+1
  6283  0E8B  30FB               	movlw	251
  6284  0E8C  00F0               	movwf	??i1_MENU
  6285  0E8D                     u524_27:
  6286  0E8D  0BF0               	decfsz	??i1_MENU,f
  6287  0E8E  2E8D               	goto	u524_27
  6288  0E8F  0BF1               	decfsz	??i1_MENU+1,f
  6289  0E90  2E8D               	goto	u524_27
  6290  0E91  2E92               	nop2
  6291  0E92                     i1l1698:
  6292                           
  6293                           ;Sereal2.c: 526:         {
  6294  0E92  1283               	bcf	3,5	;RP0=0, select bank0
  6295  0E93  1303               	bcf	3,6	;RP1=0, select bank0
  6296  0E94  1E0C               	btfss	12,4	;volatile
  6297  0E95  2E97               	goto	u220_21
  6298  0E96  2E98               	goto	u220_20
  6299  0E97                     u220_21:
  6300  0E97  2E9A               	goto	i1l142
  6301  0E98                     u220_20:
  6302  0E98                     i1l1700:
  6303                           
  6304                           ;Sereal2.c: 527:             TXREG = 51;;Sereal2.c: 528:         }
  6305  0E98  3052               	movlw	82
  6306  0E99  0099               	movwf	25	;volatile
  6307  0E9A                     i1l142:	
  6308                           ;Sereal2.c: 529:         _delay((unsigned long)((5)*(8000000/4000.0)));
  6309                           
  6310                           
  6311                           ;Sereal2.c: 530:         if (PIR1bits.TXIF)
  6312  0E9A  300D               	movlw	13
  6313  0E9B  00F1               	movwf	??i1_MENU+1
  6314  0E9C  30FB               	movlw	251
  6315  0E9D  00F0               	movwf	??i1_MENU
  6316  0E9E                     u525_27:
  6317  0E9E  0BF0               	decfsz	??i1_MENU,f
  6318  0E9F  2E9E               	goto	u525_27
  6319  0EA0  0BF1               	decfsz	??i1_MENU+1,f
  6320  0EA1  2E9E               	goto	u525_27
  6321  0EA2  2EA3               	nop2
  6322  0EA3                     i1l1702:
  6323                           
  6324                           ;Sereal2.c: 531:         {
  6325  0EA3  1283               	bcf	3,5	;RP0=0, select bank0
  6326  0EA4  1303               	bcf	3,6	;RP1=0, select bank0
  6327  0EA5  1E0C               	btfss	12,4	;volatile
  6328  0EA6  2EA8               	goto	u221_21
  6329  0EA7  2EA9               	goto	u221_20
  6330  0EA8                     u221_21:
  6331  0EA8  2EAB               	goto	i1l143
  6332  0EA9                     u221_20:
  6333  0EA9                     i1l1704:
  6334                           
  6335                           ;Sereal2.c: 532:             TXREG = 41;;Sereal2.c: 533:         }
  6336  0EA9  3054               	movlw	84
  6337  0EAA  0099               	movwf	25	;volatile
  6338  0EAB                     i1l143:	
  6339                           ;Sereal2.c: 534:         _delay((unsigned long)((5)*(8000000/4000.0)));
  6340                           
  6341                           
  6342                           ;Sereal2.c: 535:         if (PIR1bits.TXIF)
  6343  0EAB  300D               	movlw	13
  6344  0EAC  00F1               	movwf	??i1_MENU+1
  6345  0EAD  30FB               	movlw	251
  6346  0EAE  00F0               	movwf	??i1_MENU
  6347  0EAF                     u526_27:
  6348  0EAF  0BF0               	decfsz	??i1_MENU,f
  6349  0EB0  2EAF               	goto	u526_27
  6350  0EB1  0BF1               	decfsz	??i1_MENU+1,f
  6351  0EB2  2EAF               	goto	u526_27
  6352  0EB3  2EB4               	nop2
  6353  0EB4                     i1l1706:
  6354                           
  6355                           ;Sereal2.c: 536:         {
  6356  0EB4  1283               	bcf	3,5	;RP0=0, select bank0
  6357  0EB5  1303               	bcf	3,6	;RP1=0, select bank0
  6358  0EB6  1E0C               	btfss	12,4	;volatile
  6359  0EB7  2EB9               	goto	u222_21
  6360  0EB8  2EBA               	goto	u222_20
  6361  0EB9                     u222_21:
  6362  0EB9  2EBC               	goto	i1l144
  6363  0EBA                     u222_20:
  6364  0EBA                     i1l1708:
  6365                           
  6366                           ;Sereal2.c: 537:             TXREG = 32;;Sereal2.c: 538:         }
  6367  0EBA  3041               	movlw	65
  6368  0EBB  0099               	movwf	25	;volatile
  6369  0EBC                     i1l144:	
  6370                           ;Sereal2.c: 539:         _delay((unsigned long)((5)*(8000000/4000.0)));
  6371                           
  6372                           
  6373                           ;Sereal2.c: 540:         if (PIR1bits.TXIF)
  6374  0EBC  300D               	movlw	13
  6375  0EBD  00F1               	movwf	??i1_MENU+1
  6376  0EBE  30FB               	movlw	251
  6377  0EBF  00F0               	movwf	??i1_MENU
  6378  0EC0                     u527_27:
  6379  0EC0  0BF0               	decfsz	??i1_MENU,f
  6380  0EC1  2EC0               	goto	u527_27
  6381  0EC2  0BF1               	decfsz	??i1_MENU+1,f
  6382  0EC3  2EC0               	goto	u527_27
  6383  0EC4  2EC5               	nop2
  6384  0EC5                     i1l1710:
  6385                           
  6386                           ;Sereal2.c: 541:         {
  6387  0EC5  1283               	bcf	3,5	;RP0=0, select bank0
  6388  0EC6  1303               	bcf	3,6	;RP1=0, select bank0
  6389  0EC7  1E0C               	btfss	12,4	;volatile
  6390  0EC8  2ECA               	goto	u223_21
  6391  0EC9  2ECB               	goto	u223_20
  6392  0ECA                     u223_21:
  6393  0ECA  2ECD               	goto	i1l145
  6394  0ECB                     u223_20:
  6395  0ECB                     i1l1712:
  6396                           
  6397                           ;Sereal2.c: 542:             TXREG = 67;;Sereal2.c: 543:         }
  6398  0ECB  300D               	movlw	13
  6399  0ECC  0099               	movwf	25	;volatile
  6400  0ECD                     i1l145:	
  6401                           ;Sereal2.c: 544:         _delay((unsigned long)((5)*(8000000/4000.0)));
  6402                           
  6403                           
  6404                           ;Sereal2.c: 548:         }
  6405  0ECD  300D               	movlw	13
  6406  0ECE  00F1               	movwf	??i1_MENU+1
  6407  0ECF  30FB               	movlw	251
  6408  0ED0  00F0               	movwf	??i1_MENU
  6409  0ED1                     u528_27:
  6410  0ED1  0BF0               	decfsz	??i1_MENU,f
  6411  0ED2  2ED1               	goto	u528_27
  6412  0ED3  0BF1               	decfsz	??i1_MENU+1,f
  6413  0ED4  2ED1               	goto	u528_27
  6414  0ED5  2ED6               	nop2
  6415  0ED6                     i1l1714:
  6416                           
  6417                           ;Sereal2.c: 549:         _delay((unsigned long)((5)*(8000000/4000.0)));
  6418  0ED6  1283               	bcf	3,5	;RP0=0, select bank0
  6419  0ED7  1303               	bcf	3,6	;RP1=0, select bank0
  6420  0ED8  1E0C               	btfss	12,4	;volatile
  6421  0ED9  2EDB               	goto	u224_21
  6422  0EDA  2EDC               	goto	u224_20
  6423  0EDB                     u224_21:
  6424  0EDB  2EDE               	goto	i1l146
  6425  0EDC                     u224_20:
  6426  0EDC                     i1l1716:
  6427                           
  6428                           ;Sereal2.c: 550:         if (PIR1bits.TXIF);Sereal2.c: 551:         {
  6429  0EDC  3028               	movlw	40
  6430  0EDD  0099               	movwf	25	;volatile
  6431  0EDE                     i1l146:	
  6432                           ;Sereal2.c: 552:             TXREG = 109;
  6433                           
  6434                           
  6435                           ;Sereal2.c: 553:         }
  6436  0EDE  300D               	movlw	13
  6437  0EDF  00F1               	movwf	??i1_MENU+1
  6438  0EE0  30FB               	movlw	251
  6439  0EE1  00F0               	movwf	??i1_MENU
  6440  0EE2                     u529_27:
  6441  0EE2  0BF0               	decfsz	??i1_MENU,f
  6442  0EE3  2EE2               	goto	u529_27
  6443  0EE4  0BF1               	decfsz	??i1_MENU+1,f
  6444  0EE5  2EE2               	goto	u529_27
  6445  0EE6  2EE7               	nop2
  6446  0EE7                     i1l1718:
  6447                           
  6448                           ;Sereal2.c: 554:         _delay((unsigned long)((5)*(8000000/4000.0)));
  6449  0EE7  1283               	bcf	3,5	;RP0=0, select bank0
  6450  0EE8  1303               	bcf	3,6	;RP1=0, select bank0
  6451  0EE9  1E0C               	btfss	12,4	;volatile
  6452  0EEA  2EEC               	goto	u225_21
  6453  0EEB  2EED               	goto	u225_20
  6454  0EEC                     u225_21:
  6455  0EEC  2EEF               	goto	i1l147
  6456  0EED                     u225_20:
  6457  0EED                     i1l1720:
  6458                           
  6459                           ;Sereal2.c: 555:         if (PIR1bits.TXIF);Sereal2.c: 556:         {
  6460  0EED  3033               	movlw	51
  6461  0EEE  0099               	movwf	25	;volatile
  6462  0EEF                     i1l147:	
  6463                           ;Sereal2.c: 557:             TXREG = 98;
  6464                           
  6465                           
  6466                           ;Sereal2.c: 558:         }
  6467  0EEF  300D               	movlw	13
  6468  0EF0  00F1               	movwf	??i1_MENU+1
  6469  0EF1  30FB               	movlw	251
  6470  0EF2  00F0               	movwf	??i1_MENU
  6471  0EF3                     u530_27:
  6472  0EF3  0BF0               	decfsz	??i1_MENU,f
  6473  0EF4  2EF3               	goto	u530_27
  6474  0EF5  0BF1               	decfsz	??i1_MENU+1,f
  6475  0EF6  2EF3               	goto	u530_27
  6476  0EF7  2EF8               	nop2
  6477  0EF8                     i1l1722:
  6478                           
  6479                           ;Sereal2.c: 559:         _delay((unsigned long)((5)*(8000000/4000.0)));
  6480  0EF8  1283               	bcf	3,5	;RP0=0, select bank0
  6481  0EF9  1303               	bcf	3,6	;RP1=0, select bank0
  6482  0EFA  1E0C               	btfss	12,4	;volatile
  6483  0EFB  2EFD               	goto	u226_21
  6484  0EFC  2EFE               	goto	u226_20
  6485  0EFD                     u226_21:
  6486  0EFD  2F00               	goto	i1l148
  6487  0EFE                     u226_20:
  6488  0EFE                     i1l1724:
  6489                           
  6490                           ;Sereal2.c: 560:         if (PIR1bits.TXIF);Sereal2.c: 561:         {
  6491  0EFE  3029               	movlw	41
  6492  0EFF  0099               	movwf	25	;volatile
  6493  0F00                     i1l148:	
  6494                           ;Sereal2.c: 562:             TXREG = 105;
  6495                           
  6496                           
  6497                           ;Sereal2.c: 563:         }
  6498  0F00  300D               	movlw	13
  6499  0F01  00F1               	movwf	??i1_MENU+1
  6500  0F02  30FB               	movlw	251
  6501  0F03  00F0               	movwf	??i1_MENU
  6502  0F04                     u531_27:
  6503  0F04  0BF0               	decfsz	??i1_MENU,f
  6504  0F05  2F04               	goto	u531_27
  6505  0F06  0BF1               	decfsz	??i1_MENU+1,f
  6506  0F07  2F04               	goto	u531_27
  6507  0F08  2F09               	nop2
  6508  0F09                     i1l1726:
  6509                           
  6510                           ;Sereal2.c: 564:         _delay((unsigned long)((5)*(8000000/4000.0)));
  6511  0F09  1283               	bcf	3,5	;RP0=0, select bank0
  6512  0F0A  1303               	bcf	3,6	;RP1=0, select bank0
  6513  0F0B  1E0C               	btfss	12,4	;volatile
  6514  0F0C  2F0E               	goto	u227_21
  6515  0F0D  2F0F               	goto	u227_20
  6516  0F0E                     u227_21:
  6517  0F0E  2F11               	goto	i1l149
  6518  0F0F                     u227_20:
  6519  0F0F                     i1l1728:
  6520                           
  6521                           ;Sereal2.c: 565:         if (PIR1bits.TXIF);Sereal2.c: 566:         {
  6522  0F0F  3020               	movlw	32
  6523  0F10  0099               	movwf	25	;volatile
  6524  0F11                     i1l149:	
  6525                           ;Sereal2.c: 567:             TXREG = 97;
  6526                           
  6527                           
  6528                           ;Sereal2.c: 568:         }
  6529  0F11  300D               	movlw	13
  6530  0F12  00F1               	movwf	??i1_MENU+1
  6531  0F13  30FB               	movlw	251
  6532  0F14  00F0               	movwf	??i1_MENU
  6533  0F15                     u532_27:
  6534  0F15  0BF0               	decfsz	??i1_MENU,f
  6535  0F16  2F15               	goto	u532_27
  6536  0F17  0BF1               	decfsz	??i1_MENU+1,f
  6537  0F18  2F15               	goto	u532_27
  6538  0F19  2F1A               	nop2
  6539  0F1A                     i1l1730:
  6540                           
  6541                           ;Sereal2.c: 569:         _delay((unsigned long)((5)*(8000000/4000.0)));
  6542  0F1A  1283               	bcf	3,5	;RP0=0, select bank0
  6543  0F1B  1303               	bcf	3,6	;RP1=0, select bank0
  6544  0F1C  1E0C               	btfss	12,4	;volatile
  6545  0F1D  2F1F               	goto	u228_21
  6546  0F1E  2F20               	goto	u228_20
  6547  0F1F                     u228_21:
  6548  0F1F  2F22               	goto	i1l150
  6549  0F20                     u228_20:
  6550  0F20                     i1l1732:
  6551                           
  6552                           ;Sereal2.c: 570:         if (PIR1bits.TXIF);Sereal2.c: 571:         {
  6553  0F20  3043               	movlw	67
  6554  0F21  0099               	movwf	25	;volatile
  6555  0F22                     i1l150:	
  6556                           ;Sereal2.c: 572:             TXREG = 114;
  6557                           
  6558                           
  6559                           ;Sereal2.c: 573:         }
  6560  0F22  300D               	movlw	13
  6561  0F23  00F1               	movwf	??i1_MENU+1
  6562  0F24  30FB               	movlw	251
  6563  0F25  00F0               	movwf	??i1_MENU
  6564  0F26                     u533_27:
  6565  0F26  0BF0               	decfsz	??i1_MENU,f
  6566  0F27  2F26               	goto	u533_27
  6567  0F28  0BF1               	decfsz	??i1_MENU+1,f
  6568  0F29  2F26               	goto	u533_27
  6569  0F2A  2F2B               	nop2
  6570  0F2B                     i1l1734:
  6571                           
  6572                           ;Sereal2.c: 574:         _delay((unsigned long)((5)*(8000000/4000.0)));
  6573  0F2B  1283               	bcf	3,5	;RP0=0, select bank0
  6574  0F2C  1303               	bcf	3,6	;RP1=0, select bank0
  6575  0F2D  1E0C               	btfss	12,4	;volatile
  6576  0F2E  2F30               	goto	u229_21
  6577  0F2F  2F31               	goto	u229_20
  6578  0F30                     u229_21:
  6579  0F30  2F33               	goto	i1l151
  6580  0F31                     u229_20:
  6581  0F31                     i1l1736:
  6582                           
  6583                           ;Sereal2.c: 575:         if (PIR1bits.TXIF);Sereal2.c: 576:         {
  6584  0F31  3061               	movlw	97
  6585  0F32  0099               	movwf	25	;volatile
  6586  0F33                     i1l151:	
  6587                           ;Sereal2.c: 577:             TXREG = 32;
  6588                           
  6589                           
  6590                           ;Sereal2.c: 578:         }
  6591  0F33  300D               	movlw	13
  6592  0F34  00F1               	movwf	??i1_MENU+1
  6593  0F35  30FB               	movlw	251
  6594  0F36  00F0               	movwf	??i1_MENU
  6595  0F37                     u534_27:
  6596  0F37  0BF0               	decfsz	??i1_MENU,f
  6597  0F38  2F37               	goto	u534_27
  6598  0F39  0BF1               	decfsz	??i1_MENU+1,f
  6599  0F3A  2F37               	goto	u534_27
  6600  0F3B  2F3C               	nop2
  6601  0F3C                     i1l1738:
  6602                           
  6603                           ;Sereal2.c: 579:         _delay((unsigned long)((5)*(8000000/4000.0)));
  6604  0F3C  1283               	bcf	3,5	;RP0=0, select bank0
  6605  0F3D  1303               	bcf	3,6	;RP1=0, select bank0
  6606  0F3E  1E0C               	btfss	12,4	;volatile
  6607  0F3F  2F41               	goto	u230_21
  6608  0F40  2F42               	goto	u230_20
  6609  0F41                     u230_21:
  6610  0F41  2F44               	goto	i1l152
  6611  0F42                     u230_20:
  6612  0F42                     i1l1740:
  6613                           
  6614                           ;Sereal2.c: 580:         if (PIR1bits.TXIF);Sereal2.c: 581:         {
  6615  0F42  306D               	movlw	109
  6616  0F43  0099               	movwf	25	;volatile
  6617  0F44                     i1l152:	
  6618                           ;Sereal2.c: 582:             TXREG = 80;
  6619                           
  6620                           
  6621                           ;Sereal2.c: 583:         }
  6622  0F44  300D               	movlw	13
  6623  0F45  00F1               	movwf	??i1_MENU+1
  6624  0F46  30FB               	movlw	251
  6625  0F47  00F0               	movwf	??i1_MENU
  6626  0F48                     u535_27:
  6627  0F48  0BF0               	decfsz	??i1_MENU,f
  6628  0F49  2F48               	goto	u535_27
  6629  0F4A  0BF1               	decfsz	??i1_MENU+1,f
  6630  0F4B  2F48               	goto	u535_27
  6631  0F4C  2F4D               	nop2
  6632  0F4D                     i1l1742:
  6633                           
  6634                           ;Sereal2.c: 584:         _delay((unsigned long)((5)*(8000000/4000.0)));
  6635  0F4D  1283               	bcf	3,5	;RP0=0, select bank0
  6636  0F4E  1303               	bcf	3,6	;RP1=0, select bank0
  6637  0F4F  1E0C               	btfss	12,4	;volatile
  6638  0F50  2F52               	goto	u231_21
  6639  0F51  2F53               	goto	u231_20
  6640  0F52                     u231_21:
  6641  0F52  2F55               	goto	i1l153
  6642  0F53                     u231_20:
  6643  0F53                     i1l1744:
  6644                           
  6645                           ;Sereal2.c: 585:         if (PIR1bits.TXIF);Sereal2.c: 586:         {
  6646  0F53  3062               	movlw	98
  6647  0F54  0099               	movwf	25	;volatile
  6648  0F55                     i1l153:	
  6649                           ;Sereal2.c: 587:             TXREG = 79;
  6650                           
  6651                           
  6652                           ;Sereal2.c: 588:         }
  6653  0F55  300D               	movlw	13
  6654  0F56  00F1               	movwf	??i1_MENU+1
  6655  0F57  30FB               	movlw	251
  6656  0F58  00F0               	movwf	??i1_MENU
  6657  0F59                     u536_27:
  6658  0F59  0BF0               	decfsz	??i1_MENU,f
  6659  0F5A  2F59               	goto	u536_27
  6660  0F5B  0BF1               	decfsz	??i1_MENU+1,f
  6661  0F5C  2F59               	goto	u536_27
  6662  0F5D  2F5E               	nop2
  6663  0F5E                     i1l1746:
  6664                           
  6665                           ;Sereal2.c: 589:         _delay((unsigned long)((5)*(8000000/4000.0)));
  6666  0F5E  1283               	bcf	3,5	;RP0=0, select bank0
  6667  0F5F  1303               	bcf	3,6	;RP1=0, select bank0
  6668  0F60  1E0C               	btfss	12,4	;volatile
  6669  0F61  2F63               	goto	u232_21
  6670  0F62  2F64               	goto	u232_20
  6671  0F63                     u232_21:
  6672  0F63  2F66               	goto	i1l154
  6673  0F64                     u232_20:
  6674  0F64                     i1l1748:
  6675                           
  6676                           ;Sereal2.c: 590:         if (PIR1bits.TXIF);Sereal2.c: 591:         {
  6677  0F64  3069               	movlw	105
  6678  0F65  0099               	movwf	25	;volatile
  6679  0F66                     i1l154:	
  6680                           ;Sereal2.c: 592:             TXREG = 82;
  6681                           
  6682                           
  6683                           ;Sereal2.c: 593:         }
  6684  0F66  300D               	movlw	13
  6685  0F67  00F1               	movwf	??i1_MENU+1
  6686  0F68  30FB               	movlw	251
  6687  0F69  00F0               	movwf	??i1_MENU
  6688  0F6A                     u537_27:
  6689  0F6A  0BF0               	decfsz	??i1_MENU,f
  6690  0F6B  2F6A               	goto	u537_27
  6691  0F6C  0BF1               	decfsz	??i1_MENU+1,f
  6692  0F6D  2F6A               	goto	u537_27
  6693  0F6E  2F6F               	nop2
  6694  0F6F                     i1l1750:
  6695                           
  6696                           ;Sereal2.c: 594:         _delay((unsigned long)((5)*(8000000/4000.0)));
  6697  0F6F  1283               	bcf	3,5	;RP0=0, select bank0
  6698  0F70  1303               	bcf	3,6	;RP1=0, select bank0
  6699  0F71  1E0C               	btfss	12,4	;volatile
  6700  0F72  2F74               	goto	u233_21
  6701  0F73  2F75               	goto	u233_20
  6702  0F74                     u233_21:
  6703  0F74  2F77               	goto	i1l155
  6704  0F75                     u233_20:
  6705  0F75                     i1l1752:
  6706                           
  6707                           ;Sereal2.c: 595:         if (PIR1bits.TXIF);Sereal2.c: 596:         {
  6708  0F75  3061               	movlw	97
  6709  0F76  0099               	movwf	25	;volatile
  6710  0F77                     i1l155:	
  6711                           ;Sereal2.c: 597:             TXREG = 84;
  6712                           
  6713                           
  6714                           ;Sereal2.c: 598:         }
  6715  0F77  300D               	movlw	13
  6716  0F78  00F1               	movwf	??i1_MENU+1
  6717  0F79  30FB               	movlw	251
  6718  0F7A  00F0               	movwf	??i1_MENU
  6719  0F7B                     u538_27:
  6720  0F7B  0BF0               	decfsz	??i1_MENU,f
  6721  0F7C  2F7B               	goto	u538_27
  6722  0F7D  0BF1               	decfsz	??i1_MENU+1,f
  6723  0F7E  2F7B               	goto	u538_27
  6724  0F7F  2F80               	nop2
  6725  0F80                     i1l1754:
  6726                           
  6727                           ;Sereal2.c: 599:         _delay((unsigned long)((5)*(8000000/4000.0)));
  6728  0F80  1283               	bcf	3,5	;RP0=0, select bank0
  6729  0F81  1303               	bcf	3,6	;RP1=0, select bank0
  6730  0F82  1E0C               	btfss	12,4	;volatile
  6731  0F83  2F85               	goto	u234_21
  6732  0F84  2F86               	goto	u234_20
  6733  0F85                     u234_21:
  6734  0F85  2F88               	goto	i1l156
  6735  0F86                     u234_20:
  6736  0F86                     i1l1756:
  6737                           
  6738                           ;Sereal2.c: 600:         if (PIR1bits.TXIF);Sereal2.c: 601:         {
  6739  0F86  3072               	movlw	114
  6740  0F87  0099               	movwf	25	;volatile
  6741  0F88                     i1l156:	
  6742                           ;Sereal2.c: 602:             TXREG = 66;
  6743                           
  6744                           
  6745                           ;Sereal2.c: 603:         }
  6746  0F88  300D               	movlw	13
  6747  0F89  00F1               	movwf	??i1_MENU+1
  6748  0F8A  30FB               	movlw	251
  6749  0F8B  00F0               	movwf	??i1_MENU
  6750  0F8C                     u539_27:
  6751  0F8C  0BF0               	decfsz	??i1_MENU,f
  6752  0F8D  2F8C               	goto	u539_27
  6753  0F8E  0BF1               	decfsz	??i1_MENU+1,f
  6754  0F8F  2F8C               	goto	u539_27
  6755  0F90  2F91               	nop2
  6756  0F91                     i1l1758:
  6757                           
  6758                           ;Sereal2.c: 604:         _delay((unsigned long)((5)*(8000000/4000.0)));
  6759  0F91  1283               	bcf	3,5	;RP0=0, select bank0
  6760  0F92  1303               	bcf	3,6	;RP1=0, select bank0
  6761  0F93  1E0C               	btfss	12,4	;volatile
  6762  0F94  2F96               	goto	u235_21
  6763  0F95  2F97               	goto	u235_20
  6764  0F96                     u235_21:
  6765  0F96  2F99               	goto	i1l157
  6766  0F97                     u235_20:
  6767  0F97                     i1l1760:
  6768                           
  6769                           ;Sereal2.c: 605:         if (PIR1bits.TXIF);Sereal2.c: 606:         {
  6770  0F97  3020               	movlw	32
  6771  0F98  0099               	movwf	25	;volatile
  6772  0F99                     i1l157:	
  6773                           ;Sereal2.c: 607:             TXREG = 13;
  6774                           
  6775                           
  6776                           ;Sereal2.c: 608:         }
  6777  0F99  300D               	movlw	13
  6778  0F9A  00F1               	movwf	??i1_MENU+1
  6779  0F9B  30FB               	movlw	251
  6780  0F9C  00F0               	movwf	??i1_MENU
  6781  0F9D                     u540_27:
  6782  0F9D  0BF0               	decfsz	??i1_MENU,f
  6783  0F9E  2F9D               	goto	u540_27
  6784  0F9F  0BF1               	decfsz	??i1_MENU+1,f
  6785  0FA0  2F9D               	goto	u540_27
  6786  0FA1  2FA2               	nop2
  6787  0FA2                     i1l1762:
  6788                           
  6789                           ;Sereal2.c: 609: }
  6790  0FA2  1283               	bcf	3,5	;RP0=0, select bank0
  6791  0FA3  1303               	bcf	3,6	;RP1=0, select bank0
  6792  0FA4  1E0C               	btfss	12,4	;volatile
  6793  0FA5  2FA7               	goto	u236_21
  6794  0FA6  2FA8               	goto	u236_20
  6795  0FA7                     u236_21:
  6796  0FA7  2FAA               	goto	i1l158
  6797  0FA8                     u236_20:
  6798  0FA8                     i1l1764:
  6799                           
  6800                           ;Sereal2.c: 610: ;Sereal2.c: 611: void INGRESE_NUEVO_VALOR (void)
  6801  0FA8  3050               	movlw	80
  6802  0FA9  0099               	movwf	25	;volatile
  6803  0FAA                     i1l158:	
  6804                           ;Sereal2.c: 612: {
  6805                           
  6806                           
  6807                           ;Sereal2.c: 613:     _delay((unsigned long)((5)*(8000000/4000.0)));
  6808  0FAA  300D               	movlw	13
  6809  0FAB  00F1               	movwf	??i1_MENU+1
  6810  0FAC  30FB               	movlw	251
  6811  0FAD  00F0               	movwf	??i1_MENU
  6812  0FAE                     u541_27:
  6813  0FAE  0BF0               	decfsz	??i1_MENU,f
  6814  0FAF  2FAE               	goto	u541_27
  6815  0FB0  0BF1               	decfsz	??i1_MENU+1,f
  6816  0FB1  2FAE               	goto	u541_27
  6817  0FB2  2FB3               	nop2
  6818  0FB3                     i1l1766:
  6819                           
  6820                           ;Sereal2.c: 614:     if (PIR1bits.TXIF)
  6821  0FB3  1283               	bcf	3,5	;RP0=0, select bank0
  6822  0FB4  1303               	bcf	3,6	;RP1=0, select bank0
  6823  0FB5  1E0C               	btfss	12,4	;volatile
  6824  0FB6  2FB8               	goto	u237_21
  6825  0FB7  2FB9               	goto	u237_20
  6826  0FB8                     u237_21:
  6827  0FB8  2FBB               	goto	i1l159
  6828  0FB9                     u237_20:
  6829  0FB9                     i1l1768:
  6830                           
  6831                           ;Sereal2.c: 615:     {;Sereal2.c: 616:         TXREG = 13;
  6832  0FB9  304F               	movlw	79
  6833  0FBA  0099               	movwf	25	;volatile
  6834  0FBB                     i1l159:	
  6835                           ;Sereal2.c: 617:     }
  6836                           
  6837                           
  6838                           ;Sereal2.c: 618:     _delay((unsigned long)((5)*(8000000/4000.0)));
  6839  0FBB  300D               	movlw	13
  6840  0FBC  00F1               	movwf	??i1_MENU+1
  6841  0FBD  30FB               	movlw	251
  6842  0FBE  00F0               	movwf	??i1_MENU
  6843  0FBF                     u542_27:
  6844  0FBF  0BF0               	decfsz	??i1_MENU,f
  6845  0FC0  2FBF               	goto	u542_27
  6846  0FC1  0BF1               	decfsz	??i1_MENU+1,f
  6847  0FC2  2FBF               	goto	u542_27
  6848  0FC3  2FC4               	nop2
  6849  0FC4                     i1l1770:
  6850                           
  6851                           ;Sereal2.c: 619:     if (PIR1bits.TXIF)
  6852  0FC4  1283               	bcf	3,5	;RP0=0, select bank0
  6853  0FC5  1303               	bcf	3,6	;RP1=0, select bank0
  6854  0FC6  1E0C               	btfss	12,4	;volatile
  6855  0FC7  2FC9               	goto	u238_21
  6856  0FC8  2FCA               	goto	u238_20
  6857  0FC9                     u238_21:
  6858  0FC9  2FCC               	goto	i1l160
  6859  0FCA                     u238_20:
  6860  0FCA                     i1l1772:
  6861                           
  6862                           ;Sereal2.c: 620:     {;Sereal2.c: 621:         TXREG = 73;
  6863  0FCA  3052               	movlw	82
  6864  0FCB  0099               	movwf	25	;volatile
  6865  0FCC                     i1l160:	
  6866                           ;Sereal2.c: 622:     }
  6867                           
  6868                           
  6869                           ;Sereal2.c: 623:     _delay((unsigned long)((5)*(8000000/4000.0)));
  6870  0FCC  300D               	movlw	13
  6871  0FCD  00F1               	movwf	??i1_MENU+1
  6872  0FCE  30FB               	movlw	251
  6873  0FCF  00F0               	movwf	??i1_MENU
  6874  0FD0                     u543_27:
  6875  0FD0  0BF0               	decfsz	??i1_MENU,f
  6876  0FD1  2FD0               	goto	u543_27
  6877  0FD2  0BF1               	decfsz	??i1_MENU+1,f
  6878  0FD3  2FD0               	goto	u543_27
  6879  0FD4  2FD5               	nop2
  6880  0FD5                     i1l1774:
  6881                           
  6882                           ;Sereal2.c: 624:     if (PIR1bits.TXIF)
  6883  0FD5  1283               	bcf	3,5	;RP0=0, select bank0
  6884  0FD6  1303               	bcf	3,6	;RP1=0, select bank0
  6885  0FD7  1E0C               	btfss	12,4	;volatile
  6886  0FD8  2FDA               	goto	u239_21
  6887  0FD9  2FDB               	goto	u239_20
  6888  0FDA                     u239_21:
  6889  0FDA  2FDD               	goto	i1l161
  6890  0FDB                     u239_20:
  6891  0FDB                     i1l1776:
  6892                           
  6893                           ;Sereal2.c: 625:     {;Sereal2.c: 626:         TXREG = 110;
  6894  0FDB  3054               	movlw	84
  6895  0FDC  0099               	movwf	25	;volatile
  6896  0FDD                     i1l161:	
  6897                           ;Sereal2.c: 627:     }
  6898                           
  6899                           
  6900                           ;Sereal2.c: 628:     _delay((unsigned long)((5)*(8000000/4000.0)));
  6901  0FDD  300D               	movlw	13
  6902  0FDE  00F1               	movwf	??i1_MENU+1
  6903  0FDF  30FB               	movlw	251
  6904  0FE0  00F0               	movwf	??i1_MENU
  6905  0FE1                     u544_27:
  6906  0FE1  0BF0               	decfsz	??i1_MENU,f
  6907  0FE2  2FE1               	goto	u544_27
  6908  0FE3  0BF1               	decfsz	??i1_MENU+1,f
  6909  0FE4  2FE1               	goto	u544_27
  6910  0FE5  2FE6               	nop2
  6911  0FE6                     i1l1778:
  6912                           
  6913                           ;Sereal2.c: 629:     if (PIR1bits.TXIF)
  6914  0FE6  1283               	bcf	3,5	;RP0=0, select bank0
  6915  0FE7  1303               	bcf	3,6	;RP1=0, select bank0
  6916  0FE8  1E0C               	btfss	12,4	;volatile
  6917  0FE9  2FEB               	goto	u240_21
  6918  0FEA  2FEC               	goto	u240_20
  6919  0FEB                     u240_21:
  6920  0FEB  2FEE               	goto	i1l162
  6921  0FEC                     u240_20:
  6922  0FEC                     i1l1780:
  6923                           
  6924                           ;Sereal2.c: 630:     {;Sereal2.c: 631:         TXREG = 103;
  6925  0FEC  3042               	movlw	66
  6926  0FED  0099               	movwf	25	;volatile
  6927  0FEE                     i1l162:	
  6928                           ;Sereal2.c: 632:     }
  6929                           
  6930                           
  6931                           ;Sereal2.c: 633:     _delay((unsigned long)((5)*(8000000/4000.0)));
  6932  0FEE  300D               	movlw	13
  6933  0FEF  00F1               	movwf	??i1_MENU+1
  6934  0FF0  30FB               	movlw	251
  6935  0FF1  00F0               	movwf	??i1_MENU
  6936  0FF2                     u545_27:
  6937  0FF2  0BF0               	decfsz	??i1_MENU,f
  6938  0FF3  2FF2               	goto	u545_27
  6939  0FF4  0BF1               	decfsz	??i1_MENU+1,f
  6940  0FF5  2FF2               	goto	u545_27
  6941  0FF6  2FF7               	nop2
  6942  0FF7                     i1l1782:
  6943                           
  6944                           ;Sereal2.c: 634:     if (PIR1bits.TXIF)
  6945  0FF7  1283               	bcf	3,5	;RP0=0, select bank0
  6946  0FF8  1303               	bcf	3,6	;RP1=0, select bank0
  6947  0FF9  1E0C               	btfss	12,4	;volatile
  6948  0FFA  2FFC               	goto	u241_21
  6949  0FFB  2FFD               	goto	u241_20
  6950  0FFC                     u241_21:
  6951  0FFC  2FFF               	goto	i1l164
  6952  0FFD                     u241_20:
  6953  0FFD                     i1l1784:
  6954                           
  6955                           ;Sereal2.c: 635:     {;Sereal2.c: 636:         TXREG = 114;
  6956  0FFD  300D               	movlw	13
  6957  0FFE  0099               	movwf	25	;volatile
  6958  0FFF                     i1l164:
  6959  0FFF  0008               	return
  6960  1000                     __end_ofi1_MENU:
  6961                           
  6962                           	psect	text4
  6963  1656                     __ptext4:	
  6964 ;; *************** function _INGRESE_NUEVO_VALOR *****************
  6965 ;; Defined at:
  6966 ;;		line 640 in file "Sereal2.c"
  6967 ;; Parameters:    Size  Location     Type
  6968 ;;		None
  6969 ;; Auto vars:     Size  Location     Type
  6970 ;;		None
  6971 ;; Return value:  Size  Location     Type
  6972 ;;                  1    wreg      void 
  6973 ;; Registers used:
  6974 ;;		wreg
  6975 ;; Tracked objects:
  6976 ;;		On entry : 0/0
  6977 ;;		On exit  : 0/0
  6978 ;;		Unchanged: 0/0
  6979 ;; Data sizes:     COMMON   BANK0   BANK1   BANK3   BANK2
  6980 ;;      Params:         0       0       0       0       0
  6981 ;;      Locals:         0       0       0       0       0
  6982 ;;      Temps:          2       0       0       0       0
  6983 ;;      Totals:         2       0       0       0       0
  6984 ;;Total ram usage:        2 bytes
  6985 ;; Hardware stack levels used:    1
  6986 ;; This function calls:
  6987 ;;		Nothing
  6988 ;; This function is called by:
  6989 ;;		_isr
  6990 ;; This function uses a non-reentrant model
  6991 ;;
  6992                           
  6993                           
  6994                           ;psect for function _INGRESE_NUEVO_VALOR
  6995  1656                     _INGRESE_NUEVO_VALOR:
  6996  1656                     i1l1290:	
  6997                           ;incstack = 0
  6998                           ; Regs used in _INGRESE_NUEVO_VALOR: [wreg]
  6999                           
  7000                           
  7001                           ;Sereal2.c: 642:     }
  7002  1656  300D               	movlw	13
  7003  1657  00F1               	movwf	??_INGRESE_NUEVO_VALOR+1
  7004  1658  30FB               	movlw	251
  7005  1659  00F0               	movwf	??_INGRESE_NUEVO_VALOR
  7006  165A                     u546_27:
  7007  165A  0BF0               	decfsz	??_INGRESE_NUEVO_VALOR,f
  7008  165B  2E5A               	goto	u546_27
  7009  165C  0BF1               	decfsz	??_INGRESE_NUEVO_VALOR+1,f
  7010  165D  2E5A               	goto	u546_27
  7011  165E  2E5F               	nop2
  7012  165F                     i1l1292:
  7013                           
  7014                           ;Sereal2.c: 643:     _delay((unsigned long)((5)*(8000000/4000.0)));
  7015  165F  1283               	bcf	3,5	;RP0=0, select bank0
  7016  1660  1303               	bcf	3,6	;RP1=0, select bank0
  7017  1661  1E0C               	btfss	12,4	;volatile
  7018  1662  2E64               	goto	u119_21
  7019  1663  2E65               	goto	u119_20
  7020  1664                     u119_21:
  7021  1664  2E67               	goto	i1l167
  7022  1665                     u119_20:
  7023  1665                     i1l1294:
  7024                           
  7025                           ;Sereal2.c: 644:     if (PIR1bits.TXIF);Sereal2.c: 645:     {
  7026  1665  300D               	movlw	13
  7027  1666  0099               	movwf	25	;volatile
  7028  1667                     i1l167:	
  7029                           ;Sereal2.c: 646:         TXREG = 115;
  7030                           
  7031                           
  7032                           ;Sereal2.c: 647:     }
  7033  1667  300D               	movlw	13
  7034  1668  00F1               	movwf	??_INGRESE_NUEVO_VALOR+1
  7035  1669  30FB               	movlw	251
  7036  166A  00F0               	movwf	??_INGRESE_NUEVO_VALOR
  7037  166B                     u547_27:
  7038  166B  0BF0               	decfsz	??_INGRESE_NUEVO_VALOR,f
  7039  166C  2E6B               	goto	u547_27
  7040  166D  0BF1               	decfsz	??_INGRESE_NUEVO_VALOR+1,f
  7041  166E  2E6B               	goto	u547_27
  7042  166F  2E70               	nop2
  7043  1670                     i1l1296:
  7044                           
  7045                           ;Sereal2.c: 648:     _delay((unsigned long)((5)*(8000000/4000.0)));
  7046  1670  1283               	bcf	3,5	;RP0=0, select bank0
  7047  1671  1303               	bcf	3,6	;RP1=0, select bank0
  7048  1672  1E0C               	btfss	12,4	;volatile
  7049  1673  2E75               	goto	u120_21
  7050  1674  2E76               	goto	u120_20
  7051  1675                     u120_21:
  7052  1675  2E78               	goto	i1l168
  7053  1676                     u120_20:
  7054  1676                     i1l1298:
  7055                           
  7056                           ;Sereal2.c: 649:     if (PIR1bits.TXIF);Sereal2.c: 650:     {
  7057  1676  3049               	movlw	73
  7058  1677  0099               	movwf	25	;volatile
  7059  1678                     i1l168:	
  7060                           ;Sereal2.c: 651:         TXREG = 101;
  7061                           
  7062                           
  7063                           ;Sereal2.c: 652:     }
  7064  1678  300D               	movlw	13
  7065  1679  00F1               	movwf	??_INGRESE_NUEVO_VALOR+1
  7066  167A  30FB               	movlw	251
  7067  167B  00F0               	movwf	??_INGRESE_NUEVO_VALOR
  7068  167C                     u548_27:
  7069  167C  0BF0               	decfsz	??_INGRESE_NUEVO_VALOR,f
  7070  167D  2E7C               	goto	u548_27
  7071  167E  0BF1               	decfsz	??_INGRESE_NUEVO_VALOR+1,f
  7072  167F  2E7C               	goto	u548_27
  7073  1680  2E81               	nop2
  7074  1681                     i1l1300:
  7075                           
  7076                           ;Sereal2.c: 653:     _delay((unsigned long)((5)*(8000000/4000.0)));
  7077  1681  1283               	bcf	3,5	;RP0=0, select bank0
  7078  1682  1303               	bcf	3,6	;RP1=0, select bank0
  7079  1683  1E0C               	btfss	12,4	;volatile
  7080  1684  2E86               	goto	u121_21
  7081  1685  2E87               	goto	u121_20
  7082  1686                     u121_21:
  7083  1686  2E89               	goto	i1l169
  7084  1687                     u121_20:
  7085  1687                     i1l1302:
  7086                           
  7087                           ;Sereal2.c: 654:     if (PIR1bits.TXIF);Sereal2.c: 655:     {
  7088  1687  306E               	movlw	110
  7089  1688  0099               	movwf	25	;volatile
  7090  1689                     i1l169:	
  7091                           ;Sereal2.c: 656:         TXREG = 32;
  7092                           
  7093                           
  7094                           ;Sereal2.c: 657:     }
  7095  1689  300D               	movlw	13
  7096  168A  00F1               	movwf	??_INGRESE_NUEVO_VALOR+1
  7097  168B  30FB               	movlw	251
  7098  168C  00F0               	movwf	??_INGRESE_NUEVO_VALOR
  7099  168D                     u549_27:
  7100  168D  0BF0               	decfsz	??_INGRESE_NUEVO_VALOR,f
  7101  168E  2E8D               	goto	u549_27
  7102  168F  0BF1               	decfsz	??_INGRESE_NUEVO_VALOR+1,f
  7103  1690  2E8D               	goto	u549_27
  7104  1691  2E92               	nop2
  7105  1692                     i1l1304:
  7106                           
  7107                           ;Sereal2.c: 658:     _delay((unsigned long)((5)*(8000000/4000.0)));
  7108  1692  1283               	bcf	3,5	;RP0=0, select bank0
  7109  1693  1303               	bcf	3,6	;RP1=0, select bank0
  7110  1694  1E0C               	btfss	12,4	;volatile
  7111  1695  2E97               	goto	u122_21
  7112  1696  2E98               	goto	u122_20
  7113  1697                     u122_21:
  7114  1697  2E9A               	goto	i1l170
  7115  1698                     u122_20:
  7116  1698                     i1l1306:
  7117                           
  7118                           ;Sereal2.c: 659:     if (PIR1bits.TXIF);Sereal2.c: 660:     {
  7119  1698  3067               	movlw	103
  7120  1699  0099               	movwf	25	;volatile
  7121  169A                     i1l170:	
  7122                           ;Sereal2.c: 661:         TXREG = 101;
  7123                           
  7124                           
  7125                           ;Sereal2.c: 662:     }
  7126  169A  300D               	movlw	13
  7127  169B  00F1               	movwf	??_INGRESE_NUEVO_VALOR+1
  7128  169C  30FB               	movlw	251
  7129  169D  00F0               	movwf	??_INGRESE_NUEVO_VALOR
  7130  169E                     u550_27:
  7131  169E  0BF0               	decfsz	??_INGRESE_NUEVO_VALOR,f
  7132  169F  2E9E               	goto	u550_27
  7133  16A0  0BF1               	decfsz	??_INGRESE_NUEVO_VALOR+1,f
  7134  16A1  2E9E               	goto	u550_27
  7135  16A2  2EA3               	nop2
  7136  16A3                     i1l1308:
  7137                           
  7138                           ;Sereal2.c: 663:     _delay((unsigned long)((5)*(8000000/4000.0)));
  7139  16A3  1283               	bcf	3,5	;RP0=0, select bank0
  7140  16A4  1303               	bcf	3,6	;RP1=0, select bank0
  7141  16A5  1E0C               	btfss	12,4	;volatile
  7142  16A6  2EA8               	goto	u123_21
  7143  16A7  2EA9               	goto	u123_20
  7144  16A8                     u123_21:
  7145  16A8  2EAB               	goto	i1l171
  7146  16A9                     u123_20:
  7147  16A9                     i1l1310:
  7148                           
  7149                           ;Sereal2.c: 664:     if (PIR1bits.TXIF);Sereal2.c: 665:     {
  7150  16A9  3072               	movlw	114
  7151  16AA  0099               	movwf	25	;volatile
  7152  16AB                     i1l171:	
  7153                           ;Sereal2.c: 666:         TXREG = 108;
  7154                           
  7155                           
  7156                           ;Sereal2.c: 667:     }
  7157  16AB  300D               	movlw	13
  7158  16AC  00F1               	movwf	??_INGRESE_NUEVO_VALOR+1
  7159  16AD  30FB               	movlw	251
  7160  16AE  00F0               	movwf	??_INGRESE_NUEVO_VALOR
  7161  16AF                     u551_27:
  7162  16AF  0BF0               	decfsz	??_INGRESE_NUEVO_VALOR,f
  7163  16B0  2EAF               	goto	u551_27
  7164  16B1  0BF1               	decfsz	??_INGRESE_NUEVO_VALOR+1,f
  7165  16B2  2EAF               	goto	u551_27
  7166  16B3  2EB4               	nop2
  7167  16B4                     i1l1312:
  7168                           
  7169                           ;Sereal2.c: 668:     _delay((unsigned long)((5)*(8000000/4000.0)));
  7170  16B4  1283               	bcf	3,5	;RP0=0, select bank0
  7171  16B5  1303               	bcf	3,6	;RP1=0, select bank0
  7172  16B6  1E0C               	btfss	12,4	;volatile
  7173  16B7  2EB9               	goto	u124_21
  7174  16B8  2EBA               	goto	u124_20
  7175  16B9                     u124_21:
  7176  16B9  2EBC               	goto	i1l172
  7177  16BA                     u124_20:
  7178  16BA                     i1l1314:
  7179                           
  7180                           ;Sereal2.c: 669:     if (PIR1bits.TXIF);Sereal2.c: 670:     {
  7181  16BA  3065               	movlw	101
  7182  16BB  0099               	movwf	25	;volatile
  7183  16BC                     i1l172:	
  7184                           ;Sereal2.c: 671:         TXREG = 32;
  7185                           
  7186                           
  7187                           ;Sereal2.c: 672:     }
  7188  16BC  300D               	movlw	13
  7189  16BD  00F1               	movwf	??_INGRESE_NUEVO_VALOR+1
  7190  16BE  30FB               	movlw	251
  7191  16BF  00F0               	movwf	??_INGRESE_NUEVO_VALOR
  7192  16C0                     u552_27:
  7193  16C0  0BF0               	decfsz	??_INGRESE_NUEVO_VALOR,f
  7194  16C1  2EC0               	goto	u552_27
  7195  16C2  0BF1               	decfsz	??_INGRESE_NUEVO_VALOR+1,f
  7196  16C3  2EC0               	goto	u552_27
  7197  16C4  2EC5               	nop2
  7198  16C5                     i1l1316:
  7199                           
  7200                           ;Sereal2.c: 673:     _delay((unsigned long)((5)*(8000000/4000.0)));
  7201  16C5  1283               	bcf	3,5	;RP0=0, select bank0
  7202  16C6  1303               	bcf	3,6	;RP1=0, select bank0
  7203  16C7  1E0C               	btfss	12,4	;volatile
  7204  16C8  2ECA               	goto	u125_21
  7205  16C9  2ECB               	goto	u125_20
  7206  16CA                     u125_21:
  7207  16CA  2ECD               	goto	i1l173
  7208  16CB                     u125_20:
  7209  16CB                     i1l1318:
  7210                           
  7211                           ;Sereal2.c: 674:     if (PIR1bits.TXIF);Sereal2.c: 675:     {
  7212  16CB  3073               	movlw	115
  7213  16CC  0099               	movwf	25	;volatile
  7214  16CD                     i1l173:	
  7215                           ;Sereal2.c: 676:         TXREG = 110;
  7216                           
  7217                           
  7218                           ;Sereal2.c: 677:     }
  7219  16CD  300D               	movlw	13
  7220  16CE  00F1               	movwf	??_INGRESE_NUEVO_VALOR+1
  7221  16CF  30FB               	movlw	251
  7222  16D0  00F0               	movwf	??_INGRESE_NUEVO_VALOR
  7223  16D1                     u553_27:
  7224  16D1  0BF0               	decfsz	??_INGRESE_NUEVO_VALOR,f
  7225  16D2  2ED1               	goto	u553_27
  7226  16D3  0BF1               	decfsz	??_INGRESE_NUEVO_VALOR+1,f
  7227  16D4  2ED1               	goto	u553_27
  7228  16D5  2ED6               	nop2
  7229  16D6                     i1l1320:
  7230                           
  7231                           ;Sereal2.c: 678:     _delay((unsigned long)((5)*(8000000/4000.0)));
  7232  16D6  1283               	bcf	3,5	;RP0=0, select bank0
  7233  16D7  1303               	bcf	3,6	;RP1=0, select bank0
  7234  16D8  1E0C               	btfss	12,4	;volatile
  7235  16D9  2EDB               	goto	u126_21
  7236  16DA  2EDC               	goto	u126_20
  7237  16DB                     u126_21:
  7238  16DB  2EDE               	goto	i1l174
  7239  16DC                     u126_20:
  7240  16DC                     i1l1322:
  7241                           
  7242                           ;Sereal2.c: 679:     if (PIR1bits.TXIF);Sereal2.c: 680:     {
  7243  16DC  3065               	movlw	101
  7244  16DD  0099               	movwf	25	;volatile
  7245  16DE                     i1l174:	
  7246                           ;Sereal2.c: 681:         TXREG = 117;
  7247                           
  7248                           
  7249                           ;Sereal2.c: 682:     }
  7250  16DE  300D               	movlw	13
  7251  16DF  00F1               	movwf	??_INGRESE_NUEVO_VALOR+1
  7252  16E0  30FB               	movlw	251
  7253  16E1  00F0               	movwf	??_INGRESE_NUEVO_VALOR
  7254  16E2                     u554_27:
  7255  16E2  0BF0               	decfsz	??_INGRESE_NUEVO_VALOR,f
  7256  16E3  2EE2               	goto	u554_27
  7257  16E4  0BF1               	decfsz	??_INGRESE_NUEVO_VALOR+1,f
  7258  16E5  2EE2               	goto	u554_27
  7259  16E6  2EE7               	nop2
  7260  16E7                     i1l1324:
  7261                           
  7262                           ;Sereal2.c: 683:     _delay((unsigned long)((5)*(8000000/4000.0)));
  7263  16E7  1283               	bcf	3,5	;RP0=0, select bank0
  7264  16E8  1303               	bcf	3,6	;RP1=0, select bank0
  7265  16E9  1E0C               	btfss	12,4	;volatile
  7266  16EA  2EEC               	goto	u127_21
  7267  16EB  2EED               	goto	u127_20
  7268  16EC                     u127_21:
  7269  16EC  2EEF               	goto	i1l175
  7270  16ED                     u127_20:
  7271  16ED                     i1l1326:
  7272                           
  7273                           ;Sereal2.c: 684:     if (PIR1bits.TXIF);Sereal2.c: 685:     {
  7274  16ED  3020               	movlw	32
  7275  16EE  0099               	movwf	25	;volatile
  7276  16EF                     i1l175:	
  7277                           ;Sereal2.c: 686:         TXREG = 101;
  7278                           
  7279                           
  7280                           ;Sereal2.c: 687:     }
  7281  16EF  300D               	movlw	13
  7282  16F0  00F1               	movwf	??_INGRESE_NUEVO_VALOR+1
  7283  16F1  30FB               	movlw	251
  7284  16F2  00F0               	movwf	??_INGRESE_NUEVO_VALOR
  7285  16F3                     u555_27:
  7286  16F3  0BF0               	decfsz	??_INGRESE_NUEVO_VALOR,f
  7287  16F4  2EF3               	goto	u555_27
  7288  16F5  0BF1               	decfsz	??_INGRESE_NUEVO_VALOR+1,f
  7289  16F6  2EF3               	goto	u555_27
  7290  16F7  2EF8               	nop2
  7291  16F8                     i1l1328:
  7292                           
  7293                           ;Sereal2.c: 688:     _delay((unsigned long)((5)*(8000000/4000.0)));
  7294  16F8  1283               	bcf	3,5	;RP0=0, select bank0
  7295  16F9  1303               	bcf	3,6	;RP1=0, select bank0
  7296  16FA  1E0C               	btfss	12,4	;volatile
  7297  16FB  2EFD               	goto	u128_21
  7298  16FC  2EFE               	goto	u128_20
  7299  16FD                     u128_21:
  7300  16FD  2F00               	goto	i1l176
  7301  16FE                     u128_20:
  7302  16FE                     i1l1330:
  7303                           
  7304                           ;Sereal2.c: 689:     if (PIR1bits.TXIF);Sereal2.c: 690:     {
  7305  16FE  3065               	movlw	101
  7306  16FF  0099               	movwf	25	;volatile
  7307  1700                     i1l176:	
  7308                           ;Sereal2.c: 691:         TXREG = 118;
  7309                           
  7310                           
  7311                           ;Sereal2.c: 692:     }
  7312  1700  300D               	movlw	13
  7313  1701  00F1               	movwf	??_INGRESE_NUEVO_VALOR+1
  7314  1702  30FB               	movlw	251
  7315  1703  00F0               	movwf	??_INGRESE_NUEVO_VALOR
  7316  1704                     u556_27:
  7317  1704  0BF0               	decfsz	??_INGRESE_NUEVO_VALOR,f
  7318  1705  2F04               	goto	u556_27
  7319  1706  0BF1               	decfsz	??_INGRESE_NUEVO_VALOR+1,f
  7320  1707  2F04               	goto	u556_27
  7321  1708  2F09               	nop2
  7322  1709                     i1l1332:
  7323                           
  7324                           ;Sereal2.c: 693:     _delay((unsigned long)((5)*(8000000/4000.0)));
  7325  1709  1283               	bcf	3,5	;RP0=0, select bank0
  7326  170A  1303               	bcf	3,6	;RP1=0, select bank0
  7327  170B  1E0C               	btfss	12,4	;volatile
  7328  170C  2F0E               	goto	u129_21
  7329  170D  2F0F               	goto	u129_20
  7330  170E                     u129_21:
  7331  170E  2F11               	goto	i1l177
  7332  170F                     u129_20:
  7333  170F                     i1l1334:
  7334                           
  7335                           ;Sereal2.c: 694:     if (PIR1bits.TXIF);Sereal2.c: 695:     {
  7336  170F  306C               	movlw	108
  7337  1710  0099               	movwf	25	;volatile
  7338  1711                     i1l177:	
  7339                           ;Sereal2.c: 696:         TXREG = 111;
  7340                           
  7341                           
  7342                           ;Sereal2.c: 697:     }
  7343  1711  300D               	movlw	13
  7344  1712  00F1               	movwf	??_INGRESE_NUEVO_VALOR+1
  7345  1713  30FB               	movlw	251
  7346  1714  00F0               	movwf	??_INGRESE_NUEVO_VALOR
  7347  1715                     u557_27:
  7348  1715  0BF0               	decfsz	??_INGRESE_NUEVO_VALOR,f
  7349  1716  2F15               	goto	u557_27
  7350  1717  0BF1               	decfsz	??_INGRESE_NUEVO_VALOR+1,f
  7351  1718  2F15               	goto	u557_27
  7352  1719  2F1A               	nop2
  7353  171A                     i1l1336:
  7354                           
  7355                           ;Sereal2.c: 698:     _delay((unsigned long)((5)*(8000000/4000.0)));
  7356  171A  1283               	bcf	3,5	;RP0=0, select bank0
  7357  171B  1303               	bcf	3,6	;RP1=0, select bank0
  7358  171C  1E0C               	btfss	12,4	;volatile
  7359  171D  2F1F               	goto	u130_21
  7360  171E  2F20               	goto	u130_20
  7361  171F                     u130_21:
  7362  171F  2F22               	goto	i1l178
  7363  1720                     u130_20:
  7364  1720                     i1l1338:
  7365                           
  7366                           ;Sereal2.c: 699:     if (PIR1bits.TXIF);Sereal2.c: 700:     {
  7367  1720  3020               	movlw	32
  7368  1721  0099               	movwf	25	;volatile
  7369  1722                     i1l178:	
  7370                           ;Sereal2.c: 701:         TXREG = 32;
  7371                           
  7372                           
  7373                           ;Sereal2.c: 702:     }
  7374  1722  300D               	movlw	13
  7375  1723  00F1               	movwf	??_INGRESE_NUEVO_VALOR+1
  7376  1724  30FB               	movlw	251
  7377  1725  00F0               	movwf	??_INGRESE_NUEVO_VALOR
  7378  1726                     u558_27:
  7379  1726  0BF0               	decfsz	??_INGRESE_NUEVO_VALOR,f
  7380  1727  2F26               	goto	u558_27
  7381  1728  0BF1               	decfsz	??_INGRESE_NUEVO_VALOR+1,f
  7382  1729  2F26               	goto	u558_27
  7383  172A  2F2B               	nop2
  7384  172B                     i1l1340:
  7385                           
  7386                           ;Sereal2.c: 703:     _delay((unsigned long)((5)*(8000000/4000.0)));
  7387  172B  1283               	bcf	3,5	;RP0=0, select bank0
  7388  172C  1303               	bcf	3,6	;RP1=0, select bank0
  7389  172D  1E0C               	btfss	12,4	;volatile
  7390  172E  2F30               	goto	u131_21
  7391  172F  2F31               	goto	u131_20
  7392  1730                     u131_21:
  7393  1730  2F33               	goto	i1l179
  7394  1731                     u131_20:
  7395  1731                     i1l1342:
  7396                           
  7397                           ;Sereal2.c: 704:     if (PIR1bits.TXIF);Sereal2.c: 705:     {
  7398  1731  306E               	movlw	110
  7399  1732  0099               	movwf	25	;volatile
  7400  1733                     i1l179:	
  7401                           ;Sereal2.c: 706:         TXREG = 118;
  7402                           
  7403                           
  7404                           ;Sereal2.c: 707:     }
  7405  1733  300D               	movlw	13
  7406  1734  00F1               	movwf	??_INGRESE_NUEVO_VALOR+1
  7407  1735  30FB               	movlw	251
  7408  1736  00F0               	movwf	??_INGRESE_NUEVO_VALOR
  7409  1737                     u559_27:
  7410  1737  0BF0               	decfsz	??_INGRESE_NUEVO_VALOR,f
  7411  1738  2F37               	goto	u559_27
  7412  1739  0BF1               	decfsz	??_INGRESE_NUEVO_VALOR+1,f
  7413  173A  2F37               	goto	u559_27
  7414  173B  2F3C               	nop2
  7415  173C                     i1l1344:
  7416                           
  7417                           ;Sereal2.c: 708:     _delay((unsigned long)((5)*(8000000/4000.0)));
  7418  173C  1283               	bcf	3,5	;RP0=0, select bank0
  7419  173D  1303               	bcf	3,6	;RP1=0, select bank0
  7420  173E  1E0C               	btfss	12,4	;volatile
  7421  173F  2F41               	goto	u132_21
  7422  1740  2F42               	goto	u132_20
  7423  1741                     u132_21:
  7424  1741  2F44               	goto	i1l180
  7425  1742                     u132_20:
  7426  1742                     i1l1346:
  7427                           
  7428                           ;Sereal2.c: 709:     if (PIR1bits.TXIF);Sereal2.c: 710:     {
  7429  1742  3075               	movlw	117
  7430  1743  0099               	movwf	25	;volatile
  7431  1744                     i1l180:	
  7432                           ;Sereal2.c: 711:         TXREG = 97;
  7433                           
  7434                           
  7435                           ;Sereal2.c: 712:     }
  7436  1744  300D               	movlw	13
  7437  1745  00F1               	movwf	??_INGRESE_NUEVO_VALOR+1
  7438  1746  30FB               	movlw	251
  7439  1747  00F0               	movwf	??_INGRESE_NUEVO_VALOR
  7440  1748                     u560_27:
  7441  1748  0BF0               	decfsz	??_INGRESE_NUEVO_VALOR,f
  7442  1749  2F48               	goto	u560_27
  7443  174A  0BF1               	decfsz	??_INGRESE_NUEVO_VALOR+1,f
  7444  174B  2F48               	goto	u560_27
  7445  174C  2F4D               	nop2
  7446  174D                     i1l1348:
  7447                           
  7448                           ;Sereal2.c: 713:     _delay((unsigned long)((5)*(8000000/4000.0)));
  7449  174D  1283               	bcf	3,5	;RP0=0, select bank0
  7450  174E  1303               	bcf	3,6	;RP1=0, select bank0
  7451  174F  1E0C               	btfss	12,4	;volatile
  7452  1750  2F52               	goto	u133_21
  7453  1751  2F53               	goto	u133_20
  7454  1752                     u133_21:
  7455  1752  2F55               	goto	i1l181
  7456  1753                     u133_20:
  7457  1753                     i1l1350:
  7458                           
  7459                           ;Sereal2.c: 714:     if (PIR1bits.TXIF);Sereal2.c: 715:     {
  7460  1753  3065               	movlw	101
  7461  1754  0099               	movwf	25	;volatile
  7462  1755                     i1l181:	
  7463                           ;Sereal2.c: 716:         TXREG = 108;
  7464                           
  7465                           
  7466                           ;Sereal2.c: 717:     }
  7467  1755  300D               	movlw	13
  7468  1756  00F1               	movwf	??_INGRESE_NUEVO_VALOR+1
  7469  1757  30FB               	movlw	251
  7470  1758  00F0               	movwf	??_INGRESE_NUEVO_VALOR
  7471  1759                     u561_27:
  7472  1759  0BF0               	decfsz	??_INGRESE_NUEVO_VALOR,f
  7473  175A  2F59               	goto	u561_27
  7474  175B  0BF1               	decfsz	??_INGRESE_NUEVO_VALOR+1,f
  7475  175C  2F59               	goto	u561_27
  7476  175D  2F5E               	nop2
  7477  175E                     i1l1352:
  7478                           
  7479                           ;Sereal2.c: 718:     _delay((unsigned long)((5)*(8000000/4000.0)));
  7480  175E  1283               	bcf	3,5	;RP0=0, select bank0
  7481  175F  1303               	bcf	3,6	;RP1=0, select bank0
  7482  1760  1E0C               	btfss	12,4	;volatile
  7483  1761  2F63               	goto	u134_21
  7484  1762  2F64               	goto	u134_20
  7485  1763                     u134_21:
  7486  1763  2F66               	goto	i1l182
  7487  1764                     u134_20:
  7488  1764                     i1l1354:
  7489                           
  7490                           ;Sereal2.c: 719:     if (PIR1bits.TXIF);Sereal2.c: 720:     {
  7491  1764  3076               	movlw	118
  7492  1765  0099               	movwf	25	;volatile
  7493  1766                     i1l182:	
  7494                           ;Sereal2.c: 721:         TXREG = 111;
  7495                           
  7496                           
  7497                           ;Sereal2.c: 722:     }
  7498  1766  300D               	movlw	13
  7499  1767  00F1               	movwf	??_INGRESE_NUEVO_VALOR+1
  7500  1768  30FB               	movlw	251
  7501  1769  00F0               	movwf	??_INGRESE_NUEVO_VALOR
  7502  176A                     u562_27:
  7503  176A  0BF0               	decfsz	??_INGRESE_NUEVO_VALOR,f
  7504  176B  2F6A               	goto	u562_27
  7505  176C  0BF1               	decfsz	??_INGRESE_NUEVO_VALOR+1,f
  7506  176D  2F6A               	goto	u562_27
  7507  176E  2F6F               	nop2
  7508  176F                     i1l1356:
  7509                           
  7510                           ;Sereal2.c: 723:     _delay((unsigned long)((5)*(8000000/4000.0)));
  7511  176F  1283               	bcf	3,5	;RP0=0, select bank0
  7512  1770  1303               	bcf	3,6	;RP1=0, select bank0
  7513  1771  1E0C               	btfss	12,4	;volatile
  7514  1772  2F74               	goto	u135_21
  7515  1773  2F75               	goto	u135_20
  7516  1774                     u135_21:
  7517  1774  2F77               	goto	i1l183
  7518  1775                     u135_20:
  7519  1775                     i1l1358:
  7520                           
  7521                           ;Sereal2.c: 724:     if (PIR1bits.TXIF);Sereal2.c: 725:     {
  7522  1775  306F               	movlw	111
  7523  1776  0099               	movwf	25	;volatile
  7524  1777                     i1l183:	
  7525                           ;Sereal2.c: 726:         TXREG = 114;
  7526                           
  7527                           
  7528                           ;Sereal2.c: 727:     }
  7529  1777  300D               	movlw	13
  7530  1778  00F1               	movwf	??_INGRESE_NUEVO_VALOR+1
  7531  1779  30FB               	movlw	251
  7532  177A  00F0               	movwf	??_INGRESE_NUEVO_VALOR
  7533  177B                     u563_27:
  7534  177B  0BF0               	decfsz	??_INGRESE_NUEVO_VALOR,f
  7535  177C  2F7B               	goto	u563_27
  7536  177D  0BF1               	decfsz	??_INGRESE_NUEVO_VALOR+1,f
  7537  177E  2F7B               	goto	u563_27
  7538  177F  2F80               	nop2
  7539  1780                     i1l1360:
  7540                           
  7541                           ;Sereal2.c: 728:     _delay((unsigned long)((5)*(8000000/4000.0)));
  7542  1780  1283               	bcf	3,5	;RP0=0, select bank0
  7543  1781  1303               	bcf	3,6	;RP1=0, select bank0
  7544  1782  1E0C               	btfss	12,4	;volatile
  7545  1783  2F85               	goto	u136_21
  7546  1784  2F86               	goto	u136_20
  7547  1785                     u136_21:
  7548  1785  2F88               	goto	i1l184
  7549  1786                     u136_20:
  7550  1786                     i1l1362:
  7551                           
  7552                           ;Sereal2.c: 729:     if (PIR1bits.TXIF);Sereal2.c: 730:     {
  7553  1786  3020               	movlw	32
  7554  1787  0099               	movwf	25	;volatile
  7555  1788                     i1l184:	
  7556                           ;Sereal2.c: 731:         TXREG = 58;
  7557                           
  7558                           
  7559                           ;Sereal2.c: 732:     }
  7560  1788  300D               	movlw	13
  7561  1789  00F1               	movwf	??_INGRESE_NUEVO_VALOR+1
  7562  178A  30FB               	movlw	251
  7563  178B  00F0               	movwf	??_INGRESE_NUEVO_VALOR
  7564  178C                     u564_27:
  7565  178C  0BF0               	decfsz	??_INGRESE_NUEVO_VALOR,f
  7566  178D  2F8C               	goto	u564_27
  7567  178E  0BF1               	decfsz	??_INGRESE_NUEVO_VALOR+1,f
  7568  178F  2F8C               	goto	u564_27
  7569  1790  2F91               	nop2
  7570  1791                     i1l1364:
  7571                           
  7572                           ;Sereal2.c: 733:     _delay((unsigned long)((5)*(8000000/4000.0)));
  7573  1791  1283               	bcf	3,5	;RP0=0, select bank0
  7574  1792  1303               	bcf	3,6	;RP1=0, select bank0
  7575  1793  1E0C               	btfss	12,4	;volatile
  7576  1794  2F96               	goto	u137_21
  7577  1795  2F97               	goto	u137_20
  7578  1796                     u137_21:
  7579  1796  2F99               	goto	i1l185
  7580  1797                     u137_20:
  7581  1797                     i1l1366:
  7582                           
  7583                           ;Sereal2.c: 734:     if (PIR1bits.TXIF);Sereal2.c: 735:     {
  7584  1797  3076               	movlw	118
  7585  1798  0099               	movwf	25	;volatile
  7586  1799                     i1l185:	
  7587                           ;Sereal2.c: 736:         TXREG = 32;
  7588                           
  7589                           
  7590                           ;Sereal2.c: 737:     }
  7591  1799  300D               	movlw	13
  7592  179A  00F1               	movwf	??_INGRESE_NUEVO_VALOR+1
  7593  179B  30FB               	movlw	251
  7594  179C  00F0               	movwf	??_INGRESE_NUEVO_VALOR
  7595  179D                     u565_27:
  7596  179D  0BF0               	decfsz	??_INGRESE_NUEVO_VALOR,f
  7597  179E  2F9D               	goto	u565_27
  7598  179F  0BF1               	decfsz	??_INGRESE_NUEVO_VALOR+1,f
  7599  17A0  2F9D               	goto	u565_27
  7600  17A1  2FA2               	nop2
  7601  17A2                     i1l1368:
  7602                           
  7603                           ;Sereal2.c: 738: }
  7604  17A2  1283               	bcf	3,5	;RP0=0, select bank0
  7605  17A3  1303               	bcf	3,6	;RP1=0, select bank0
  7606  17A4  1E0C               	btfss	12,4	;volatile
  7607  17A5  2FA7               	goto	u138_21
  7608  17A6  2FA8               	goto	u138_20
  7609  17A7                     u138_21:
  7610  17A7  2FAA               	goto	i1l186
  7611  17A8                     u138_20:
  7612  17A8                     i1l1370:
  7613                           
  7614                           ;Sereal2.c: 739: ;Sereal2.c: 740: void __attribute__((picinterrupt(("")))) isr(void)
  7615  17A8  3061               	movlw	97
  7616  17A9  0099               	movwf	25	;volatile
  7617  17AA                     i1l186:	
  7618                           ;Sereal2.c: 741: {
  7619                           
  7620                           
  7621                           ;Sereal2.c: 742:     if (PIR1bits.RCIF)
  7622  17AA  300D               	movlw	13
  7623  17AB  00F1               	movwf	??_INGRESE_NUEVO_VALOR+1
  7624  17AC  30FB               	movlw	251
  7625  17AD  00F0               	movwf	??_INGRESE_NUEVO_VALOR
  7626  17AE                     u566_27:
  7627  17AE  0BF0               	decfsz	??_INGRESE_NUEVO_VALOR,f
  7628  17AF  2FAE               	goto	u566_27
  7629  17B0  0BF1               	decfsz	??_INGRESE_NUEVO_VALOR+1,f
  7630  17B1  2FAE               	goto	u566_27
  7631  17B2  2FB3               	nop2
  7632  17B3                     i1l1372:
  7633                           
  7634                           ;Sereal2.c: 743:     {
  7635  17B3  1283               	bcf	3,5	;RP0=0, select bank0
  7636  17B4  1303               	bcf	3,6	;RP1=0, select bank0
  7637  17B5  1E0C               	btfss	12,4	;volatile
  7638  17B6  2FB8               	goto	u139_21
  7639  17B7  2FB9               	goto	u139_20
  7640  17B8                     u139_21:
  7641  17B8  2FBB               	goto	i1l187
  7642  17B9                     u139_20:
  7643  17B9                     i1l1374:
  7644                           
  7645                           ;Sereal2.c: 744: ;Sereal2.c: 745:         switch (RCREG)
  7646  17B9  306C               	movlw	108
  7647  17BA  0099               	movwf	25	;volatile
  7648  17BB                     i1l187:	
  7649                           ;Sereal2.c: 746:         {
  7650                           
  7651                           
  7652                           ;Sereal2.c: 747:             case 49:
  7653  17BB  300D               	movlw	13
  7654  17BC  00F1               	movwf	??_INGRESE_NUEVO_VALOR+1
  7655  17BD  30FB               	movlw	251
  7656  17BE  00F0               	movwf	??_INGRESE_NUEVO_VALOR
  7657  17BF                     u567_27:
  7658  17BF  0BF0               	decfsz	??_INGRESE_NUEVO_VALOR,f
  7659  17C0  2FBF               	goto	u567_27
  7660  17C1  0BF1               	decfsz	??_INGRESE_NUEVO_VALOR+1,f
  7661  17C2  2FBF               	goto	u567_27
  7662  17C3  2FC4               	nop2
  7663  17C4                     i1l1376:
  7664                           
  7665                           ;Sereal2.c: 748:                 HOLA_MUNDO();
  7666  17C4  1283               	bcf	3,5	;RP0=0, select bank0
  7667  17C5  1303               	bcf	3,6	;RP1=0, select bank0
  7668  17C6  1E0C               	btfss	12,4	;volatile
  7669  17C7  2FC9               	goto	u140_21
  7670  17C8  2FCA               	goto	u140_20
  7671  17C9                     u140_21:
  7672  17C9  2FCC               	goto	i1l188
  7673  17CA                     u140_20:
  7674  17CA                     i1l1378:
  7675                           
  7676                           ;Sereal2.c: 749:                 if (PIR1bits.TXIF);Sereal2.c: 750:                 {
  7677  17CA  306F               	movlw	111
  7678  17CB  0099               	movwf	25	;volatile
  7679  17CC                     i1l188:	
  7680                           ;Sereal2.c: 751:                     TXREG = 13;
  7681                           
  7682                           
  7683                           ;Sereal2.c: 752:                 }
  7684  17CC  300D               	movlw	13
  7685  17CD  00F1               	movwf	??_INGRESE_NUEVO_VALOR+1
  7686  17CE  30FB               	movlw	251
  7687  17CF  00F0               	movwf	??_INGRESE_NUEVO_VALOR
  7688  17D0                     u568_27:
  7689  17D0  0BF0               	decfsz	??_INGRESE_NUEVO_VALOR,f
  7690  17D1  2FD0               	goto	u568_27
  7691  17D2  0BF1               	decfsz	??_INGRESE_NUEVO_VALOR+1,f
  7692  17D3  2FD0               	goto	u568_27
  7693  17D4  2FD5               	nop2
  7694  17D5                     i1l1380:
  7695                           
  7696                           ;Sereal2.c: 753:                 MENU();
  7697  17D5  1283               	bcf	3,5	;RP0=0, select bank0
  7698  17D6  1303               	bcf	3,6	;RP1=0, select bank0
  7699  17D7  1E0C               	btfss	12,4	;volatile
  7700  17D8  2FDA               	goto	u141_21
  7701  17D9  2FDB               	goto	u141_20
  7702  17DA                     u141_21:
  7703  17DA  2FDD               	goto	i1l189
  7704  17DB                     u141_20:
  7705  17DB                     i1l1382:
  7706                           
  7707                           ;Sereal2.c: 754:                 break;;Sereal2.c: 755: 
  7708  17DB  3072               	movlw	114
  7709  17DC  0099               	movwf	25	;volatile
  7710  17DD                     i1l189:	
  7711                           ;Sereal2.c: 756:             case 50:
  7712                           
  7713                           
  7714                           ;Sereal2.c: 757:                 INGRESE_NUEVO_VALOR();
  7715  17DD  300D               	movlw	13
  7716  17DE  00F1               	movwf	??_INGRESE_NUEVO_VALOR+1
  7717  17DF  30FB               	movlw	251
  7718  17E0  00F0               	movwf	??_INGRESE_NUEVO_VALOR
  7719  17E1                     u569_27:
  7720  17E1  0BF0               	decfsz	??_INGRESE_NUEVO_VALOR,f
  7721  17E2  2FE1               	goto	u569_27
  7722  17E3  0BF1               	decfsz	??_INGRESE_NUEVO_VALOR+1,f
  7723  17E4  2FE1               	goto	u569_27
  7724  17E5  2FE6               	nop2
  7725  17E6                     i1l1384:
  7726                           
  7727                           ;Sereal2.c: 758:                 do
  7728  17E6  1283               	bcf	3,5	;RP0=0, select bank0
  7729  17E7  1303               	bcf	3,6	;RP1=0, select bank0
  7730  17E8  1E0C               	btfss	12,4	;volatile
  7731  17E9  2FEB               	goto	u142_21
  7732  17EA  2FEC               	goto	u142_20
  7733  17EB                     u142_21:
  7734  17EB  2FEE               	goto	i1l190
  7735  17EC                     u142_20:
  7736  17EC                     i1l1386:
  7737                           
  7738                           ;Sereal2.c: 759:                 {;Sereal2.c: 760:                     if (PIR1bits.RCIF
      +                          )
  7739  17EC  303A               	movlw	58
  7740  17ED  0099               	movwf	25	;volatile
  7741  17EE                     i1l190:	
  7742                           ;Sereal2.c: 761:                     {
  7743                           
  7744                           
  7745                           ;Sereal2.c: 762:                         PORTA = RCREG;
  7746  17EE  300D               	movlw	13
  7747  17EF  00F1               	movwf	??_INGRESE_NUEVO_VALOR+1
  7748  17F0  30FB               	movlw	251
  7749  17F1  00F0               	movwf	??_INGRESE_NUEVO_VALOR
  7750  17F2                     u570_27:
  7751  17F2  0BF0               	decfsz	??_INGRESE_NUEVO_VALOR,f
  7752  17F3  2FF2               	goto	u570_27
  7753  17F4  0BF1               	decfsz	??_INGRESE_NUEVO_VALOR+1,f
  7754  17F5  2FF2               	goto	u570_27
  7755  17F6  2FF7               	nop2
  7756  17F7                     i1l1388:
  7757                           
  7758                           ;Sereal2.c: 763:                         Boolean = 255;
  7759  17F7  1283               	bcf	3,5	;RP0=0, select bank0
  7760  17F8  1303               	bcf	3,6	;RP1=0, select bank0
  7761  17F9  1E0C               	btfss	12,4	;volatile
  7762  17FA  2FFC               	goto	u143_21
  7763  17FB  2FFD               	goto	u143_20
  7764  17FC                     u143_21:
  7765  17FC  2FFF               	goto	i1l192
  7766  17FD                     u143_20:
  7767  17FD                     i1l1390:
  7768                           
  7769                           ;Sereal2.c: 764:                     };Sereal2.c: 765:                 }
  7770  17FD  3020               	movlw	32
  7771  17FE  0099               	movwf	25	;volatile
  7772  17FF                     i1l192:
  7773  17FF  0008               	return
  7774  1800                     __end_of_INGRESE_NUEVO_VALOR:
  7775                           
  7776                           	psect	text5
  7777  083E                     __ptext5:	
  7778 ;; *************** function _HOLA_MUNDO *****************
  7779 ;; Defined at:
  7780 ;;		line 34 in file "Sereal2.c"
  7781 ;; Parameters:    Size  Location     Type
  7782 ;;		None
  7783 ;; Auto vars:     Size  Location     Type
  7784 ;;		None
  7785 ;; Return value:  Size  Location     Type
  7786 ;;                  1    wreg      void 
  7787 ;; Registers used:
  7788 ;;		wreg
  7789 ;; Tracked objects:
  7790 ;;		On entry : 0/0
  7791 ;;		On exit  : 0/0
  7792 ;;		Unchanged: 0/0
  7793 ;; Data sizes:     COMMON   BANK0   BANK1   BANK3   BANK2
  7794 ;;      Params:         0       0       0       0       0
  7795 ;;      Locals:         0       0       0       0       0
  7796 ;;      Temps:          2       0       0       0       0
  7797 ;;      Totals:         2       0       0       0       0
  7798 ;;Total ram usage:        2 bytes
  7799 ;; Hardware stack levels used:    1
  7800 ;; This function calls:
  7801 ;;		Nothing
  7802 ;; This function is called by:
  7803 ;;		_isr
  7804 ;; This function uses a non-reentrant model
  7805 ;;
  7806                           
  7807                           
  7808                           ;psect for function _HOLA_MUNDO
  7809  083E                     _HOLA_MUNDO:
  7810  083E                     i1l814:	
  7811                           ;incstack = 0
  7812                           ; Regs used in _HOLA_MUNDO: [wreg]
  7813                           
  7814                           
  7815                           ;Sereal2.c: 36:         }
  7816  083E  300D               	movlw	13
  7817  083F  00F1               	movwf	??_HOLA_MUNDO+1
  7818  0840  30FB               	movlw	251
  7819  0841  00F0               	movwf	??_HOLA_MUNDO
  7820  0842                     u571_27:
  7821  0842  0BF0               	decfsz	??_HOLA_MUNDO,f
  7822  0843  2842               	goto	u571_27
  7823  0844  0BF1               	decfsz	??_HOLA_MUNDO+1,f
  7824  0845  2842               	goto	u571_27
  7825  0846  2847               	nop2
  7826  0847                     i1l816:
  7827                           
  7828                           ;Sereal2.c: 37:         _delay((unsigned long)((5)*(8000000/4000.0)));
  7829  0847  1283               	bcf	3,5	;RP0=0, select bank0
  7830  0848  1303               	bcf	3,6	;RP1=0, select bank0
  7831  0849  1E0C               	btfss	12,4	;volatile
  7832  084A  284C               	goto	u1_21
  7833  084B  284D               	goto	u1_20
  7834  084C                     u1_21:
  7835  084C  284F               	goto	i1l43
  7836  084D                     u1_20:
  7837  084D                     i1l818:
  7838                           
  7839                           ;Sereal2.c: 38:         if (PIR1bits.TXIF);Sereal2.c: 39:         {
  7840  084D  300D               	movlw	13
  7841  084E  0099               	movwf	25	;volatile
  7842  084F                     i1l43:	
  7843                           ;Sereal2.c: 40:             TXREG = 66;
  7844                           
  7845                           
  7846                           ;Sereal2.c: 41:         }
  7847  084F  300D               	movlw	13
  7848  0850  00F1               	movwf	??_HOLA_MUNDO+1
  7849  0851  30FB               	movlw	251
  7850  0852  00F0               	movwf	??_HOLA_MUNDO
  7851  0853                     u572_27:
  7852  0853  0BF0               	decfsz	??_HOLA_MUNDO,f
  7853  0854  2853               	goto	u572_27
  7854  0855  0BF1               	decfsz	??_HOLA_MUNDO+1,f
  7855  0856  2853               	goto	u572_27
  7856  0857  2858               	nop2
  7857  0858                     i1l820:
  7858                           
  7859                           ;Sereal2.c: 42:         _delay((unsigned long)((5)*(8000000/4000.0)));
  7860  0858  1283               	bcf	3,5	;RP0=0, select bank0
  7861  0859  1303               	bcf	3,6	;RP1=0, select bank0
  7862  085A  1E0C               	btfss	12,4	;volatile
  7863  085B  285D               	goto	u2_21
  7864  085C  285E               	goto	u2_20
  7865  085D                     u2_21:
  7866  085D  2860               	goto	i1l44
  7867  085E                     u2_20:
  7868  085E                     i1l822:
  7869                           
  7870                           ;Sereal2.c: 43:         if (PIR1bits.TXIF);Sereal2.c: 44:         {
  7871  085E  3048               	movlw	72
  7872  085F  0099               	movwf	25	;volatile
  7873  0860                     i1l44:	
  7874                           ;Sereal2.c: 45:             TXREG = 85;
  7875                           
  7876                           
  7877                           ;Sereal2.c: 46:         }
  7878  0860  300D               	movlw	13
  7879  0861  00F1               	movwf	??_HOLA_MUNDO+1
  7880  0862  30FB               	movlw	251
  7881  0863  00F0               	movwf	??_HOLA_MUNDO
  7882  0864                     u573_27:
  7883  0864  0BF0               	decfsz	??_HOLA_MUNDO,f
  7884  0865  2864               	goto	u573_27
  7885  0866  0BF1               	decfsz	??_HOLA_MUNDO+1,f
  7886  0867  2864               	goto	u573_27
  7887  0868  2869               	nop2
  7888  0869                     i1l824:
  7889                           
  7890                           ;Sereal2.c: 47:         _delay((unsigned long)((5)*(8000000/4000.0)));
  7891  0869  1283               	bcf	3,5	;RP0=0, select bank0
  7892  086A  1303               	bcf	3,6	;RP1=0, select bank0
  7893  086B  1E0C               	btfss	12,4	;volatile
  7894  086C  286E               	goto	u3_21
  7895  086D  286F               	goto	u3_20
  7896  086E                     u3_21:
  7897  086E  2871               	goto	i1l45
  7898  086F                     u3_20:
  7899  086F                     i1l826:
  7900                           
  7901                           ;Sereal2.c: 48:         if (PIR1bits.TXIF);Sereal2.c: 49:         {
  7902  086F  304F               	movlw	79
  7903  0870  0099               	movwf	25	;volatile
  7904  0871                     i1l45:	
  7905                           ;Sereal2.c: 50:             TXREG = 69;
  7906                           
  7907                           
  7908                           ;Sereal2.c: 51:         }
  7909  0871  300D               	movlw	13
  7910  0872  00F1               	movwf	??_HOLA_MUNDO+1
  7911  0873  30FB               	movlw	251
  7912  0874  00F0               	movwf	??_HOLA_MUNDO
  7913  0875                     u574_27:
  7914  0875  0BF0               	decfsz	??_HOLA_MUNDO,f
  7915  0876  2875               	goto	u574_27
  7916  0877  0BF1               	decfsz	??_HOLA_MUNDO+1,f
  7917  0878  2875               	goto	u574_27
  7918  0879  287A               	nop2
  7919  087A                     i1l828:
  7920                           
  7921                           ;Sereal2.c: 52:         _delay((unsigned long)((5)*(8000000/4000.0)));
  7922  087A  1283               	bcf	3,5	;RP0=0, select bank0
  7923  087B  1303               	bcf	3,6	;RP1=0, select bank0
  7924  087C  1E0C               	btfss	12,4	;volatile
  7925  087D  287F               	goto	u4_21
  7926  087E  2880               	goto	u4_20
  7927  087F                     u4_21:
  7928  087F  2882               	goto	i1l46
  7929  0880                     u4_20:
  7930  0880                     i1l830:
  7931                           
  7932                           ;Sereal2.c: 53:         if (PIR1bits.TXIF);Sereal2.c: 54:         {
  7933  0880  304C               	movlw	76
  7934  0881  0099               	movwf	25	;volatile
  7935  0882                     i1l46:	
  7936                           ;Sereal2.c: 55:             TXREG = 78;
  7937                           
  7938                           
  7939                           ;Sereal2.c: 56:         }
  7940  0882  300D               	movlw	13
  7941  0883  00F1               	movwf	??_HOLA_MUNDO+1
  7942  0884  30FB               	movlw	251
  7943  0885  00F0               	movwf	??_HOLA_MUNDO
  7944  0886                     u575_27:
  7945  0886  0BF0               	decfsz	??_HOLA_MUNDO,f
  7946  0887  2886               	goto	u575_27
  7947  0888  0BF1               	decfsz	??_HOLA_MUNDO+1,f
  7948  0889  2886               	goto	u575_27
  7949  088A  288B               	nop2
  7950  088B                     i1l832:
  7951                           
  7952                           ;Sereal2.c: 57:         _delay((unsigned long)((5)*(8000000/4000.0)));
  7953  088B  1283               	bcf	3,5	;RP0=0, select bank0
  7954  088C  1303               	bcf	3,6	;RP1=0, select bank0
  7955  088D  1E0C               	btfss	12,4	;volatile
  7956  088E  2890               	goto	u5_21
  7957  088F  2891               	goto	u5_20
  7958  0890                     u5_21:
  7959  0890  2893               	goto	i1l47
  7960  0891                     u5_20:
  7961  0891                     i1l834:
  7962                           
  7963                           ;Sereal2.c: 58:         if (PIR1bits.TXIF);Sereal2.c: 59:         {
  7964  0891  3041               	movlw	65
  7965  0892  0099               	movwf	25	;volatile
  7966  0893                     i1l47:	
  7967                           ;Sereal2.c: 60:             TXREG = 65;
  7968                           
  7969                           
  7970                           ;Sereal2.c: 61:         }
  7971  0893  300D               	movlw	13
  7972  0894  00F1               	movwf	??_HOLA_MUNDO+1
  7973  0895  30FB               	movlw	251
  7974  0896  00F0               	movwf	??_HOLA_MUNDO
  7975  0897                     u576_27:
  7976  0897  0BF0               	decfsz	??_HOLA_MUNDO,f
  7977  0898  2897               	goto	u576_27
  7978  0899  0BF1               	decfsz	??_HOLA_MUNDO+1,f
  7979  089A  2897               	goto	u576_27
  7980  089B  289C               	nop2
  7981  089C                     i1l836:
  7982                           
  7983                           ;Sereal2.c: 62:         _delay((unsigned long)((5)*(8000000/4000.0)));
  7984  089C  1283               	bcf	3,5	;RP0=0, select bank0
  7985  089D  1303               	bcf	3,6	;RP1=0, select bank0
  7986  089E  1E0C               	btfss	12,4	;volatile
  7987  089F  28A1               	goto	u6_21
  7988  08A0  28A2               	goto	u6_20
  7989  08A1                     u6_21:
  7990  08A1  28A4               	goto	i1l48
  7991  08A2                     u6_20:
  7992  08A2                     i1l838:
  7993                           
  7994                           ;Sereal2.c: 63:         if (PIR1bits.TXIF);Sereal2.c: 64:         {
  7995  08A2  3020               	movlw	32
  7996  08A3  0099               	movwf	25	;volatile
  7997  08A4                     i1l48:	
  7998                           ;Sereal2.c: 65:             TXREG = 83;
  7999                           
  8000                           
  8001                           ;Sereal2.c: 66:         }
  8002  08A4  300D               	movlw	13
  8003  08A5  00F1               	movwf	??_HOLA_MUNDO+1
  8004  08A6  30FB               	movlw	251
  8005  08A7  00F0               	movwf	??_HOLA_MUNDO
  8006  08A8                     u577_27:
  8007  08A8  0BF0               	decfsz	??_HOLA_MUNDO,f
  8008  08A9  28A8               	goto	u577_27
  8009  08AA  0BF1               	decfsz	??_HOLA_MUNDO+1,f
  8010  08AB  28A8               	goto	u577_27
  8011  08AC  28AD               	nop2
  8012  08AD                     i1l840:
  8013                           
  8014                           ;Sereal2.c: 67:         _delay((unsigned long)((5)*(8000000/4000.0)));
  8015  08AD  1283               	bcf	3,5	;RP0=0, select bank0
  8016  08AE  1303               	bcf	3,6	;RP1=0, select bank0
  8017  08AF  1E0C               	btfss	12,4	;volatile
  8018  08B0  28B2               	goto	u7_21
  8019  08B1  28B3               	goto	u7_20
  8020  08B2                     u7_21:
  8021  08B2  28B5               	goto	i1l49
  8022  08B3                     u7_20:
  8023  08B3                     i1l842:
  8024                           
  8025                           ;Sereal2.c: 68:         if (PIR1bits.TXIF);Sereal2.c: 69:         {
  8026  08B3  3042               	movlw	66
  8027  08B4  0099               	movwf	25	;volatile
  8028  08B5                     i1l49:	
  8029                           ;Sereal2.c: 70:             TXREG = 32;
  8030                           
  8031                           
  8032                           ;Sereal2.c: 71:         }
  8033  08B5  300D               	movlw	13
  8034  08B6  00F1               	movwf	??_HOLA_MUNDO+1
  8035  08B7  30FB               	movlw	251
  8036  08B8  00F0               	movwf	??_HOLA_MUNDO
  8037  08B9                     u578_27:
  8038  08B9  0BF0               	decfsz	??_HOLA_MUNDO,f
  8039  08BA  28B9               	goto	u578_27
  8040  08BB  0BF1               	decfsz	??_HOLA_MUNDO+1,f
  8041  08BC  28B9               	goto	u578_27
  8042  08BD  28BE               	nop2
  8043  08BE                     i1l844:
  8044                           
  8045                           ;Sereal2.c: 72:         _delay((unsigned long)((5)*(8000000/4000.0)));
  8046  08BE  1283               	bcf	3,5	;RP0=0, select bank0
  8047  08BF  1303               	bcf	3,6	;RP1=0, select bank0
  8048  08C0  1E0C               	btfss	12,4	;volatile
  8049  08C1  28C3               	goto	u8_21
  8050  08C2  28C4               	goto	u8_20
  8051  08C3                     u8_21:
  8052  08C3  28C6               	goto	i1l50
  8053  08C4                     u8_20:
  8054  08C4                     i1l846:
  8055                           
  8056                           ;Sereal2.c: 73: ;Sereal2.c: 74:         if (PIR1bits.TXIF)
  8057  08C4  3055               	movlw	85
  8058  08C5  0099               	movwf	25	;volatile
  8059  08C6                     i1l50:	
  8060                           ;Sereal2.c: 75:         {
  8061                           
  8062                           
  8063                           ;Sereal2.c: 76:             TXREG = 84;
  8064  08C6  300D               	movlw	13
  8065  08C7  00F1               	movwf	??_HOLA_MUNDO+1
  8066  08C8  30FB               	movlw	251
  8067  08C9  00F0               	movwf	??_HOLA_MUNDO
  8068  08CA                     u579_27:
  8069  08CA  0BF0               	decfsz	??_HOLA_MUNDO,f
  8070  08CB  28CA               	goto	u579_27
  8071  08CC  0BF1               	decfsz	??_HOLA_MUNDO+1,f
  8072  08CD  28CA               	goto	u579_27
  8073  08CE  28CF               	nop2
  8074  08CF                     i1l848:
  8075                           
  8076                           ;Sereal2.c: 77:         }
  8077  08CF  1283               	bcf	3,5	;RP0=0, select bank0
  8078  08D0  1303               	bcf	3,6	;RP1=0, select bank0
  8079  08D1  1E0C               	btfss	12,4	;volatile
  8080  08D2  28D4               	goto	u9_21
  8081  08D3  28D5               	goto	u9_20
  8082  08D4                     u9_21:
  8083  08D4  28D7               	goto	i1l51
  8084  08D5                     u9_20:
  8085  08D5                     i1l850:
  8086                           
  8087                           ;Sereal2.c: 78:         _delay((unsigned long)((5)*(8000000/4000.0)));;Sereal2.c: 79:   
      +                                if (PIR1bits.TXIF)
  8088  08D5  3045               	movlw	69
  8089  08D6  0099               	movwf	25	;volatile
  8090  08D7                     i1l51:	
  8091                           ;Sereal2.c: 80:         {
  8092                           
  8093                           
  8094                           ;Sereal2.c: 81:             TXREG = 65;
  8095  08D7  300D               	movlw	13
  8096  08D8  00F1               	movwf	??_HOLA_MUNDO+1
  8097  08D9  30FB               	movlw	251
  8098  08DA  00F0               	movwf	??_HOLA_MUNDO
  8099  08DB                     u580_27:
  8100  08DB  0BF0               	decfsz	??_HOLA_MUNDO,f
  8101  08DC  28DB               	goto	u580_27
  8102  08DD  0BF1               	decfsz	??_HOLA_MUNDO+1,f
  8103  08DE  28DB               	goto	u580_27
  8104  08DF  28E0               	nop2
  8105  08E0                     i1l852:
  8106                           
  8107                           ;Sereal2.c: 82:         }
  8108  08E0  1283               	bcf	3,5	;RP0=0, select bank0
  8109  08E1  1303               	bcf	3,6	;RP1=0, select bank0
  8110  08E2  1E0C               	btfss	12,4	;volatile
  8111  08E3  28E5               	goto	u10_21
  8112  08E4  28E6               	goto	u10_20
  8113  08E5                     u10_21:
  8114  08E5  28E8               	goto	i1l52
  8115  08E6                     u10_20:
  8116  08E6                     i1l854:
  8117                           
  8118                           ;Sereal2.c: 83:         _delay((unsigned long)((5)*(8000000/4000.0)));;Sereal2.c: 84:   
      +                                if (PIR1bits.TXIF)
  8119  08E6  304E               	movlw	78
  8120  08E7  0099               	movwf	25	;volatile
  8121  08E8                     i1l52:	
  8122                           ;Sereal2.c: 85:         {
  8123                           
  8124                           
  8125                           ;Sereal2.c: 86:             TXREG = 82;
  8126  08E8  300D               	movlw	13
  8127  08E9  00F1               	movwf	??_HOLA_MUNDO+1
  8128  08EA  30FB               	movlw	251
  8129  08EB  00F0               	movwf	??_HOLA_MUNDO
  8130  08EC                     u581_27:
  8131  08EC  0BF0               	decfsz	??_HOLA_MUNDO,f
  8132  08ED  28EC               	goto	u581_27
  8133  08EE  0BF1               	decfsz	??_HOLA_MUNDO+1,f
  8134  08EF  28EC               	goto	u581_27
  8135  08F0  28F1               	nop2
  8136  08F1                     i1l856:
  8137                           
  8138                           ;Sereal2.c: 87:         }
  8139  08F1  1283               	bcf	3,5	;RP0=0, select bank0
  8140  08F2  1303               	bcf	3,6	;RP1=0, select bank0
  8141  08F3  1E0C               	btfss	12,4	;volatile
  8142  08F4  28F6               	goto	u11_21
  8143  08F5  28F7               	goto	u11_20
  8144  08F6                     u11_21:
  8145  08F6  28F9               	goto	i1l53
  8146  08F7                     u11_20:
  8147  08F7                     i1l858:
  8148                           
  8149                           ;Sereal2.c: 88:         _delay((unsigned long)((5)*(8000000/4000.0)));;Sereal2.c: 89:   
      +                                if (PIR1bits.TXIF)
  8150  08F7  3041               	movlw	65
  8151  08F8  0099               	movwf	25	;volatile
  8152  08F9                     i1l53:	
  8153                           ;Sereal2.c: 90:         {
  8154                           
  8155                           
  8156                           ;Sereal2.c: 91:             TXREG = 68;
  8157  08F9  300D               	movlw	13
  8158  08FA  00F1               	movwf	??_HOLA_MUNDO+1
  8159  08FB  30FB               	movlw	251
  8160  08FC  00F0               	movwf	??_HOLA_MUNDO
  8161  08FD                     u582_27:
  8162  08FD  0BF0               	decfsz	??_HOLA_MUNDO,f
  8163  08FE  28FD               	goto	u582_27
  8164  08FF  0BF1               	decfsz	??_HOLA_MUNDO+1,f
  8165  0900  28FD               	goto	u582_27
  8166  0901  2902               	nop2
  8167  0902                     i1l860:
  8168                           
  8169                           ;Sereal2.c: 92:         }
  8170  0902  1283               	bcf	3,5	;RP0=0, select bank0
  8171  0903  1303               	bcf	3,6	;RP1=0, select bank0
  8172  0904  1E0C               	btfss	12,4	;volatile
  8173  0905  2907               	goto	u12_21
  8174  0906  2908               	goto	u12_20
  8175  0907                     u12_21:
  8176  0907  290A               	goto	i1l54
  8177  0908                     u12_20:
  8178  0908                     i1l862:
  8179                           
  8180                           ;Sereal2.c: 93:         _delay((unsigned long)((5)*(8000000/4000.0)));;Sereal2.c: 94:   
      +                                if (PIR1bits.TXIF)
  8181  0908  3053               	movlw	83
  8182  0909  0099               	movwf	25	;volatile
  8183  090A                     i1l54:	
  8184                           ;Sereal2.c: 95:         {
  8185                           
  8186                           
  8187                           ;Sereal2.c: 96:             TXREG = 69;
  8188  090A  300D               	movlw	13
  8189  090B  00F1               	movwf	??_HOLA_MUNDO+1
  8190  090C  30FB               	movlw	251
  8191  090D  00F0               	movwf	??_HOLA_MUNDO
  8192  090E                     u583_27:
  8193  090E  0BF0               	decfsz	??_HOLA_MUNDO,f
  8194  090F  290E               	goto	u583_27
  8195  0910  0BF1               	decfsz	??_HOLA_MUNDO+1,f
  8196  0911  290E               	goto	u583_27
  8197  0912  2913               	nop2
  8198  0913                     i1l864:
  8199                           
  8200                           ;Sereal2.c: 97:         }
  8201  0913  1283               	bcf	3,5	;RP0=0, select bank0
  8202  0914  1303               	bcf	3,6	;RP1=0, select bank0
  8203  0915  1E0C               	btfss	12,4	;volatile
  8204  0916  2918               	goto	u13_21
  8205  0917  2919               	goto	u13_20
  8206  0918                     u13_21:
  8207  0918  291B               	goto	i1l55
  8208  0919                     u13_20:
  8209  0919                     i1l866:
  8210                           
  8211                           ;Sereal2.c: 98:         _delay((unsigned long)((5)*(8000000/4000.0)));;Sereal2.c: 99:   
      +                                if (PIR1bits.TXIF)
  8212  0919  3020               	movlw	32
  8213  091A  0099               	movwf	25	;volatile
  8214  091B                     i1l55:	
  8215                           ;Sereal2.c: 100:         {
  8216                           
  8217                           
  8218                           ;Sereal2.c: 101:             TXREG = 83;
  8219  091B  300D               	movlw	13
  8220  091C  00F1               	movwf	??_HOLA_MUNDO+1
  8221  091D  30FB               	movlw	251
  8222  091E  00F0               	movwf	??_HOLA_MUNDO
  8223  091F                     u584_27:
  8224  091F  0BF0               	decfsz	??_HOLA_MUNDO,f
  8225  0920  291F               	goto	u584_27
  8226  0921  0BF1               	decfsz	??_HOLA_MUNDO+1,f
  8227  0922  291F               	goto	u584_27
  8228  0923  2924               	nop2
  8229  0924                     i1l868:
  8230                           
  8231                           ;Sereal2.c: 103:         _delay((unsigned long)((5)*(8000000/4000.0)));
  8232  0924  1283               	bcf	3,5	;RP0=0, select bank0
  8233  0925  1303               	bcf	3,6	;RP1=0, select bank0
  8234  0926  1E0C               	btfss	12,4	;volatile
  8235  0927  2929               	goto	u14_21
  8236  0928  292A               	goto	u14_20
  8237  0929                     u14_21:
  8238  0929  292C               	goto	i1l56
  8239  092A                     u14_20:
  8240  092A                     i1l870:
  8241                           
  8242                           ;Sereal2.c: 104:         if (PIR1bits.TXIF);Sereal2.c: 105:         {
  8243  092A  3054               	movlw	84
  8244  092B  0099               	movwf	25	;volatile
  8245  092C                     i1l56:	
  8246                           ;Sereal2.c: 106:             TXREG = 13;
  8247                           
  8248                           
  8249                           ;Sereal2.c: 107:         }
  8250  092C  300D               	movlw	13
  8251  092D  00F1               	movwf	??_HOLA_MUNDO+1
  8252  092E  30FB               	movlw	251
  8253  092F  00F0               	movwf	??_HOLA_MUNDO
  8254  0930                     u585_27:
  8255  0930  0BF0               	decfsz	??_HOLA_MUNDO,f
  8256  0931  2930               	goto	u585_27
  8257  0932  0BF1               	decfsz	??_HOLA_MUNDO+1,f
  8258  0933  2930               	goto	u585_27
  8259  0934  2935               	nop2
  8260  0935                     i1l872:
  8261                           
  8262                           ;Sereal2.c: 108: }
  8263  0935  1283               	bcf	3,5	;RP0=0, select bank0
  8264  0936  1303               	bcf	3,6	;RP1=0, select bank0
  8265  0937  1E0C               	btfss	12,4	;volatile
  8266  0938  293A               	goto	u15_21
  8267  0939  293B               	goto	u15_20
  8268  093A                     u15_21:
  8269  093A  293D               	goto	i1l57
  8270  093B                     u15_20:
  8271  093B                     i1l874:
  8272                           
  8273                           ;Sereal2.c: 109: ;Sereal2.c: 110: void MENU (void)
  8274  093B  3041               	movlw	65
  8275  093C  0099               	movwf	25	;volatile
  8276  093D                     i1l57:	
  8277                           ;Sereal2.c: 111: {
  8278                           
  8279                           
  8280                           ;Sereal2.c: 112:         _delay((unsigned long)((5)*(8000000/4000.0)));
  8281  093D  300D               	movlw	13
  8282  093E  00F1               	movwf	??_HOLA_MUNDO+1
  8283  093F  30FB               	movlw	251
  8284  0940  00F0               	movwf	??_HOLA_MUNDO
  8285  0941                     u586_27:
  8286  0941  0BF0               	decfsz	??_HOLA_MUNDO,f
  8287  0942  2941               	goto	u586_27
  8288  0943  0BF1               	decfsz	??_HOLA_MUNDO+1,f
  8289  0944  2941               	goto	u586_27
  8290  0945  2946               	nop2
  8291  0946                     i1l876:
  8292                           
  8293                           ;Sereal2.c: 113:         if (PIR1bits.TXIF)
  8294  0946  1283               	bcf	3,5	;RP0=0, select bank0
  8295  0947  1303               	bcf	3,6	;RP1=0, select bank0
  8296  0948  1E0C               	btfss	12,4	;volatile
  8297  0949  294B               	goto	u16_21
  8298  094A  294C               	goto	u16_20
  8299  094B                     u16_21:
  8300  094B  294E               	goto	i1l58
  8301  094C                     u16_20:
  8302  094C                     i1l878:
  8303                           
  8304                           ;Sereal2.c: 114:         {;Sereal2.c: 115:             TXREG = 81;
  8305  094C  3052               	movlw	82
  8306  094D  0099               	movwf	25	;volatile
  8307  094E                     i1l58:	
  8308                           ;Sereal2.c: 116:         }
  8309                           
  8310                           
  8311                           ;Sereal2.c: 117:         _delay((unsigned long)((5)*(8000000/4000.0)));
  8312  094E  300D               	movlw	13
  8313  094F  00F1               	movwf	??_HOLA_MUNDO+1
  8314  0950  30FB               	movlw	251
  8315  0951  00F0               	movwf	??_HOLA_MUNDO
  8316  0952                     u587_27:
  8317  0952  0BF0               	decfsz	??_HOLA_MUNDO,f
  8318  0953  2952               	goto	u587_27
  8319  0954  0BF1               	decfsz	??_HOLA_MUNDO+1,f
  8320  0955  2952               	goto	u587_27
  8321  0956  2957               	nop2
  8322  0957                     i1l880:
  8323                           
  8324                           ;Sereal2.c: 118:         if (PIR1bits.TXIF)
  8325  0957  1283               	bcf	3,5	;RP0=0, select bank0
  8326  0958  1303               	bcf	3,6	;RP1=0, select bank0
  8327  0959  1E0C               	btfss	12,4	;volatile
  8328  095A  295C               	goto	u17_21
  8329  095B  295D               	goto	u17_20
  8330  095C                     u17_21:
  8331  095C  295F               	goto	i1l59
  8332  095D                     u17_20:
  8333  095D                     i1l882:
  8334                           
  8335                           ;Sereal2.c: 119:         {;Sereal2.c: 120:             TXREG = 117;
  8336  095D  3044               	movlw	68
  8337  095E  0099               	movwf	25	;volatile
  8338  095F                     i1l59:	
  8339                           ;Sereal2.c: 121:         }
  8340                           
  8341                           
  8342                           ;Sereal2.c: 122:         _delay((unsigned long)((5)*(8000000/4000.0)));
  8343  095F  300D               	movlw	13
  8344  0960  00F1               	movwf	??_HOLA_MUNDO+1
  8345  0961  30FB               	movlw	251
  8346  0962  00F0               	movwf	??_HOLA_MUNDO
  8347  0963                     u588_27:
  8348  0963  0BF0               	decfsz	??_HOLA_MUNDO,f
  8349  0964  2963               	goto	u588_27
  8350  0965  0BF1               	decfsz	??_HOLA_MUNDO+1,f
  8351  0966  2963               	goto	u588_27
  8352  0967  2968               	nop2
  8353  0968                     i1l884:
  8354                           
  8355                           ;Sereal2.c: 123:         if (PIR1bits.TXIF)
  8356  0968  1283               	bcf	3,5	;RP0=0, select bank0
  8357  0969  1303               	bcf	3,6	;RP1=0, select bank0
  8358  096A  1E0C               	btfss	12,4	;volatile
  8359  096B  296D               	goto	u18_21
  8360  096C  296E               	goto	u18_20
  8361  096D                     u18_21:
  8362  096D  2970               	goto	i1l60
  8363  096E                     u18_20:
  8364  096E                     i1l886:
  8365                           
  8366                           ;Sereal2.c: 124:         {;Sereal2.c: 125:             TXREG = 101;
  8367  096E  3045               	movlw	69
  8368  096F  0099               	movwf	25	;volatile
  8369  0970                     i1l60:	
  8370                           ;Sereal2.c: 126:         }
  8371                           
  8372                           
  8373                           ;Sereal2.c: 127:         _delay((unsigned long)((5)*(8000000/4000.0)));
  8374  0970  300D               	movlw	13
  8375  0971  00F1               	movwf	??_HOLA_MUNDO+1
  8376  0972  30FB               	movlw	251
  8377  0973  00F0               	movwf	??_HOLA_MUNDO
  8378  0974                     u589_27:
  8379  0974  0BF0               	decfsz	??_HOLA_MUNDO,f
  8380  0975  2974               	goto	u589_27
  8381  0976  0BF1               	decfsz	??_HOLA_MUNDO+1,f
  8382  0977  2974               	goto	u589_27
  8383  0978  2979               	nop2
  8384  0979                     i1l888:
  8385                           
  8386                           ;Sereal2.c: 128:         if (PIR1bits.TXIF)
  8387  0979  1283               	bcf	3,5	;RP0=0, select bank0
  8388  097A  1303               	bcf	3,6	;RP1=0, select bank0
  8389  097B  1E0C               	btfss	12,4	;volatile
  8390  097C  297E               	goto	u19_21
  8391  097D  297F               	goto	u19_20
  8392  097E                     u19_21:
  8393  097E  2981               	goto	i1l61
  8394  097F                     u19_20:
  8395  097F                     i1l890:
  8396                           
  8397                           ;Sereal2.c: 129:         {;Sereal2.c: 130:             TXREG = 32;
  8398  097F  3053               	movlw	83
  8399  0980  0099               	movwf	25	;volatile
  8400  0981                     i1l61:	
  8401                           ;Sereal2.c: 131:         }
  8402                           
  8403                           
  8404                           ;Sereal2.c: 132:         _delay((unsigned long)((5)*(8000000/4000.0)));
  8405  0981  300D               	movlw	13
  8406  0982  00F1               	movwf	??_HOLA_MUNDO+1
  8407  0983  30FB               	movlw	251
  8408  0984  00F0               	movwf	??_HOLA_MUNDO
  8409  0985                     u590_27:
  8410  0985  0BF0               	decfsz	??_HOLA_MUNDO,f
  8411  0986  2985               	goto	u590_27
  8412  0987  0BF1               	decfsz	??_HOLA_MUNDO+1,f
  8413  0988  2985               	goto	u590_27
  8414  0989  298A               	nop2
  8415  098A                     i1l892:
  8416                           
  8417                           ;Sereal2.c: 133:         if (PIR1bits.TXIF)
  8418  098A  1283               	bcf	3,5	;RP0=0, select bank0
  8419  098B  1303               	bcf	3,6	;RP1=0, select bank0
  8420  098C  1E0C               	btfss	12,4	;volatile
  8421  098D  298F               	goto	u20_21
  8422  098E  2990               	goto	u20_20
  8423  098F                     u20_21:
  8424  098F  2992               	goto	i1l63
  8425  0990                     u20_20:
  8426  0990                     i1l894:
  8427                           
  8428                           ;Sereal2.c: 134:         {;Sereal2.c: 135:             TXREG = 97;
  8429  0990  300D               	movlw	13
  8430  0991  0099               	movwf	25	;volatile
  8431  0992                     i1l63:
  8432  0992  0008               	return
  8433  0993                     __end_of_HOLA_MUNDO:
  8434  007E                     btemp	set	126	;btemp
  8435  007E                     wtemp0	set	126
  8436                           
  8437                           	psect	config
  8438                           
  8439                           ;Config register CONFIG1 @ 0x2007
  8440                           ;	Oscillator Selection bits
  8441                           ;	FOSC = INTRC_NOCLKOUT, INTOSCIO oscillator: I/O function on RA6/OSC2/CLKOUT pin, I/O f
      +                          unction on RA7/OSC1/CLKIN
  8442                           ;	Watchdog Timer Enable bit
  8443                           ;	WDTE = OFF, WDT disabled and can be enabled by SWDTEN bit of the WDTCON register
  8444                           ;	Power-up Timer Enable bit
  8445                           ;	PWRTE = ON, PWRT enabled
  8446                           ;	RE3/MCLR pin function select bit
  8447                           ;	MCLRE = OFF, RE3/MCLR pin function is digital input, MCLR internally tied to VDD
  8448                           ;	Code Protection bit
  8449                           ;	CP = OFF, Program memory code protection is disabled
  8450                           ;	Data Code Protection bit
  8451                           ;	CPD = OFF, Data memory code protection is disabled
  8452                           ;	Brown Out Reset Selection bits
  8453                           ;	BOREN = OFF, BOR disabled
  8454                           ;	Internal External Switchover bit
  8455                           ;	IESO = OFF, Internal/External Switchover mode is disabled
  8456                           ;	Fail-Safe Clock Monitor Enabled bit
  8457                           ;	FCMEN = OFF, Fail-Safe Clock Monitor is disabled
  8458                           ;	Low Voltage Programming Enable bit
  8459                           ;	LVP = ON, RB3/PGM pin has PGM function, low voltage programming enabled
  8460                           ;	In-Circuit Debugger Mode bit
  8461                           ;	DEBUG = 0x1, unprogrammed default
  8462  2007                     	org	8199
  8463  2007  30C4               	dw	12484
  8464                           
  8465                           ;Config register CONFIG2 @ 0x2008
  8466                           ;	Brown-out Reset Selection bit
  8467                           ;	BOR4V = BOR40V, Brown-out Reset set to 4.0V
  8468                           ;	Flash Program Memory Self Write Enable bits
  8469                           ;	WRT = OFF, Write protection off
  8470  2008                     	org	8200
  8471  2008  3FFF               	dw	16383

Data Sizes:
    Strings     0
    Constant    0
    Data        1
    BSS         1
    Persistent  0
    Stack       0

Auto Spaces:
    Space          Size  Autos    Used
    COMMON           14      7       9
    BANK0            80      2       2
    BANK1            80      0       0
    BANK3            96      0       0
    BANK2            96      0       0

Pointer List with Targets:

    None.

Critical Paths under _main in COMMON

    None.

Critical Paths under _isr in COMMON

    _isr->_HOLA_MUNDO
    _isr->_INGRESE_NUEVO_VALOR
    _isr->i1_MENU

Critical Paths under _main in BANK0

    _main->_MENU

Critical Paths under _isr in BANK0

    None.

Critical Paths under _main in BANK1

    None.

Critical Paths under _isr in BANK1

    None.

Critical Paths under _main in BANK3

    None.

Critical Paths under _isr in BANK3

    None.

Critical Paths under _main in BANK2

    None.

Critical Paths under _isr in BANK2

    None.

Call Graph Tables:

 ---------------------------------------------------------------------------------
 (Depth) Function   	        Calls       Base Space   Used Autos Params    Refs
 ---------------------------------------------------------------------------------
 (0) _main                                                 0     0      0       0
                               _MENU
 ---------------------------------------------------------------------------------
 (1) _MENU                                                 2     2      0       0
                                              0 BANK0      2     2      0
 ---------------------------------------------------------------------------------
 Estimated maximum stack depth 1
 ---------------------------------------------------------------------------------
 (Depth) Function   	        Calls       Base Space   Used Autos Params    Refs
 ---------------------------------------------------------------------------------
 (2) _isr                                                  5     5      0       0
                                              2 COMMON     5     5      0
                         _HOLA_MUNDO
                _INGRESE_NUEVO_VALOR
                             i1_MENU
 ---------------------------------------------------------------------------------
 (3) i1_MENU                                               2     2      0       0
                                              0 COMMON     2     2      0
 ---------------------------------------------------------------------------------
 (3) _INGRESE_NUEVO_VALOR                                  2     2      0       0
                                              0 COMMON     2     2      0
 ---------------------------------------------------------------------------------
 (3) _HOLA_MUNDO                                           2     2      0       0
                                              0 COMMON     2     2      0
 ---------------------------------------------------------------------------------
 Estimated maximum stack depth 3
 ---------------------------------------------------------------------------------

 Call Graph Graphs:

 _main (ROOT)
   _MENU

 _isr (ROOT)
   _HOLA_MUNDO
   _INGRESE_NUEVO_VALOR
   i1_MENU

 Address spaces:
Name               Size   Autos  Total    Cost      Usage
BANK3               60      0       0       9        0.0%
BITBANK3            60      0       0       8        0.0%
SFR3                 0      0       0       4        0.0%
BITSFR3              0      0       0       4        0.0%
BANK2               60      0       0      11        0.0%
BITBANK2            60      0       0      10        0.0%
SFR2                 0      0       0       5        0.0%
BITSFR2              0      0       0       5        0.0%
BANK1               50      0       0       7        0.0%
BITBANK1            50      0       0       6        0.0%
SFR1                 0      0       0       2        0.0%
BITSFR1              0      0       0       2        0.0%
BANK0               50      2       2       5        2.5%
BITBANK0            50      0       0       4        0.0%
SFR0                 0      0       0       1        0.0%
BITSFR0              0      0       0       1        0.0%
COMMON               E      7       9       1       64.3%
BITCOMMON            E      0       0       0        0.0%
CODE                 0      0       0       0        0.0%
DATA                 0      0       B      12        0.0%
ABS                  0      0       B       3        0.0%
NULL                 0      0       0       0        0.0%
STACK                0      0       0       2        0.0%
EEDATA             100      0       0       0        0.0%


Microchip Technology PIC Macro Assembler V2.31 build 20201012212115 
Symbol Table                                                                                   Tue May 04 12:13:34 2021

                 ?_HOLA_MUNDO 0070                            l70 0076                            l71 0088  
                          l80 011E                            l72 009A                            l81 0130  
                          l73 00AC                            l82 0142                            l74 00BE  
                          l66 002E                            l91 01D8                            l83 0154  
                          l67 0040                            l92 01EA                            l84 0166  
                          l76 00D6                            l68 0052                            l93 01FC  
                          l85 0178                            l77 00E8                            l69 0064  
                          l94 020E                            l86 018A                            l78 00FA  
                          l95 0220                            l87 019C                            l79 010C  
                          l96 0232                            l88 01AE                            l97 0244  
                          l89 01C0                            l98 0256                            l99 0268  
                         l100 027A                           l101 028C                           l110 032E  
                         l102 029E                           l111 0340                           l103 02B0  
                         l120 03E2                           l112 0352                           l104 02C2  
                         l121 03F4                           l113 0364                           l105 02D4  
                         l130 0496                           l122 0406                           l114 0376  
                         l106 02E6                           l131 04A8                           l123 0418  
                         l115 0388                           l107 02F8                           l140 054A  
                         l132 04BA                           l124 042A                           l116 039A  
                         l108 030A                           l220 07C8                           l141 055C  
                         l133 04CC                           l125 043C                           l117 03AC  
                         l109 031C                           l150 05FE                           l142 056E  
                         l134 04DE                           l126 044E                           l118 03BE  
                         l151 0610                           l143 0580                           l135 04F0  
                         l127 0460                           l119 03D0                           l160 06B2  
                         l152 0622                           l144 0592                           l136 0502  
                         l128 0472                           l161 06C4                           l153 0634  
                         l145 05A4                           l137 0514                           l129 0484  
                         l162 06D6                           l154 0646                           l146 05B6  
                         l138 0526                           l155 0658                           l147 05C8  
                         l139 0538                           l219 07C8                           l164 06E8  
                         l156 066A                           l148 05DA                           l157 067C  
                         l149 05EC                           l158 068E                           l159 06A0  
         _Constante_impresion 0078                           _isr 06E9                           fsr0 0004  
                        l2000 01CA                          l2010 01E8                          l2002 01D0  
                        l2100 0380                          l2020 0218                          l2012 01F4  
                        l2004 01D2                          l2110 03AA                          l2102 0386  
                        l2030 0242                          l2022 021E                          l2014 01FA  
                        l2006 01D6                          l2200 0542                          l2120 03DA  
                        l2112 03B6                          l2104 0392                          l2040 0272  
                        l2032 024E                          l2024 022A                          l2016 0206  
                        l2008 01E2                          l2210 056C                          l2202 0548  
                        l2130 0404                          l2122 03E0                          l2114 03BC  
                        l2106 0398                          l2050 029C                          l2042 0278  
                        l2034 0254                          l2026 0230                          l2018 020C  
                        l2220 059C                          l2212 0578                          l2204 0554  
                        l2140 0434                          l2132 0410                          l2124 03EC  
                        l2116 03C8                          l2108 03A4                          l2060 02CC  
                        l2052 02A8                          l2044 0284                          l2036 0260  
                        l2028 023C                          l2230 05C6                          l2222 05A2  
                        l2214 057E                          l2206 055A                          l2150 045E  
                        l2142 043A                          l2134 0416                          l2126 03F2  
                        l2118 03CE                          l2070 02F6                          l2062 02D2  
                        l2054 02AE                          l2046 028A                          l2038 0266  
                        l2240 05F6                          l2232 05D2                          l2224 05AE  
                        l2216 058A                          l2208 0566                          l2160 048E  
                        l2152 046A                          l2144 0446                          l2136 0422  
                        l2128 03FE                          l2080 0326                          l2072 0302  
                        l2064 02DE                          l2056 02BA                          l2048 0296  
                        l2250 0620                          l2242 05FC                          l2234 05D8  
                        l2226 05B4                          l2218 0590                          l2170 04B8  
                        l2162 0494                          l2154 0470                          l2146 044C  
                        l2138 0428                          l2090 0350                          l2082 032C  
                        l2074 0308                          l2066 02E4                          l2058 02C0  
                        l2260 0650                          l2252 062C                          l2244 0608  
                        l2236 05E4                          l2228 05C0                          l2180 04E8  
                        l2172 04C4                          l2164 04A0                          l2156 047C  
                        l2148 0458                          l2092 035C                          l2084 0338  
                        l2076 0314                          l2068 02F0                          l2270 067A  
                        l2262 0656                          l2254 0632                          l2246 060E  
                        l2238 05EA                          l2190 0512                          l2182 04EE  
                        l2174 04CA                          l2166 04A6                          l2158 0482  
                        l2094 0362                          l2086 033E                          l2078 031A  
                        l2350 079B                          l2280 06AA                          l2272 0686  
                        l2264 0662                          l2256 063E                          l2248 061A  
                        l2192 051E                          l2184 04FA                          l2176 04D6  
                        l2168 04B2                          l2096 036E                          l2088 034A  
                        l2360 07B2                          l2352 07A7                          l2290 06D4  
                        l2282 06B0                          l2274 068C                          l2266 0668  
                        l2258 0644                          l2194 0524                          l2186 0500  
                        l2178 04DC                          l2098 0374                          l2370 07BB  
                        l2362 07B3                          l2354 07AA                          l2292 06E0  
                        l2284 06BC                          l2276 0698                          l2268 0674  
                        l2196 0530                          l2188 050C                          l2372 07BE  
                        l2364 07B6                          l2356 07AB                          l2348 0795  
                        l2294 06E6                          l2286 06C2                          l2278 069E  
                        l2198 0536                          l1910 003E                          l1902 001C  
                        l2374 07C1                          l2366 07B7                          l2358 07AE  
                        l2288 06CE                          l1920 006E                          l1912 004A  
                        l1904 0026                          l2376 07C2                          l2368 07B8  
                        l1930 0098                          l1922 0074                          l1914 0050  
                        l1906 002C                          l2378 07C3                          l1940 00C8  
                        l1932 00A4                          l1924 0080                          l1916 005C  
                        l1908 0038                          l1950 00E6                          l1942 00CE  
                        l1934 00AA                          l1926 0086                          l1918 0062  
                        l1960 0116                          l1952 00F2                          l1944 00D0  
                        l1936 00B6                          l1928 0092                          l1970 0140  
                        l1962 011C                          l1954 00F8                          l1946 00D4  
                        l1938 00BC                          l1980 0170                          l1972 014C  
                        l1964 0128                          l1956 0104                          l1948 00E0  
                        l1990 019A                          l1982 0176                          l1974 0152  
                        l1966 012E                          l1958 010A                          l1992 01A6  
                        l1984 0182                          l1976 015E                          l1968 013A  
                        l1994 01AC                          l1986 0188                          l1978 0164  
                        l1996 01B8                          l1988 0194                          l1998 01BE  
                        ?_isr 0070                          u3000 0374                          u3001 0373  
                        u3010 0386                          u3011 0385                          u3100 0428  
                        u3020 0398                          u3101 0427                          u3021 0397  
                        u3110 043A                          u3030 03AA                          u3111 0439  
                        u3031 03A9                          u3200 04DC                          u3120 044C  
                        u3040 03BC                          u3201 04DB                          u3121 044B  
                        u3041 03BB                          u3210 04EE                          u3130 045E  
                        u3050 03CE                          u3211 04ED                          u3131 045D  
                        u3051 03CD                          u3300 0590                          u3220 0500  
                        u3140 0470                          u3060 03E0                          u3301 058F  
                        u3221 04FF                          u3141 046F                          u3061 03DF  
                        u3310 05A2                          u3230 0512                          u3150 0482  
                        u3070 03F2                          u3311 05A1                          u3231 0511  
                        u3151 0481                          u3071 03F1                          u4007 03B2  
                        u3400 0644                          u3320 05B4                          u3240 0524  
                        u3160 0494                          u3080 0404                          u2600 00BC  
                        u2520 002C                          u3401 0643                          u3321 05B3  
                        u3241 0523                          u3161 0493                          u3081 0403  
                        u4017 03C4                          u2601 00BB                          u2521 002B  
                        u3410 0656                          u3330 05C6                          u3250 0536  
                        u3170 04A6                          u3090 0416                          u2610 00CE  
                        u2530 003E                          u3411 0655                          u3331 05C5  
                        u3251 0535                          u3171 04A5                          u4107 0466  
                        u3091 0415                          u4027 03D6                          u2611 00CD  
                        u2531 003D                          u3420 0668                          u3340 05D8  
                        u3260 0548                          u3180 04B8                          u2700 0164  
                        u2620 00D4                          u2540 0050                          u3421 0667  
                        u3341 05D7                          u3261 0547                          u3181 04B7  
                        u4117 0478                          u4037 03E8                          u2701 0163  
                        u2621 00D3                          u2541 004F                          u3430 067A  
                        u3350 05EA                          u3270 055A                          u3190 04CA  
                        u2710 0176                          u2630 00E6                          u2550 0062  
                        u3431 0679                          u3351 05E9                          u3271 0559  
                        u4207 051A                          u3191 04C9                          u4127 048A  
                        u4047 03FA                          u2711 0175                          u2631 00E5  
                        u2551 0061                          u3440 068C                          u3360 05FC  
                        u3280 056C                          u2800 020C                          u2720 0188  
                        u2640 00F8                          u2560 0074                          u3441 068B  
                        u3361 05FB                          u3281 056B                          u4217 052C  
                        u4137 049C                          u4057 040C                          u2801 020B  
                        u2721 0187                          u2641 00F7                          u2561 0073  
                        u3450 069E                          u3370 060E                          u3290 057E  
                        u2810 021E                          u2730 019A                          u2650 010A  
                        u2570 0086                          u3451 069D                          u3371 060D  
                        u4307 05CE                          u3291 057D                          u4227 053E  
                        u4147 04AE                          u4067 041E                          u2811 021D  
                        u2731 0199                          u2651 0109                          u2571 0085  
                        u3507 0022                          u3460 06B0                          u3380 0620  
                        u2900 02C0                          u2820 0230                          u2740 01AC  
                        u2660 011C                          u2580 0098                          u3461 06AF  
                        u3381 061F                          u4317 05E0                          u4237 0550  
                        u4157 04C0                          u4077 0430                          u2901 02BF  
                        u2821 022F                          u2741 01AB                          u2661 011B  
                        u2581 0097                          u3517 0034                          u3470 06C2  
                        u3390 0632                          u2910 02D2                          u2830 0242  
                        u2750 01BE                          u2670 012E                          u2590 00AA  
                        u3471 06C1                          u4407 0682                          u3391 0631  
                        u4327 05F2                          u4247 0562                          u4167 04D2  
                        u4087 0442                          u2911 02D1                          u2831 0241  
                        u2751 01BD                          u2671 012D                          u3607 00DC  
                        u2591 00A9                          u3527 0046                          u3480 06D4  
                        u2920 02E4                          u2840 0254                          u2760 01D0  
                        u2680 0140                          u3481 06D3                          u4417 0694  
                        u4337 0604                          u4257 0574                          u4177 04E4  
                        u4097 0454                          u2921 02E3                          u2841 0253  
                        u2761 01CF                          u2681 013F                          u3617 00EE  
                        u3537 0058                          u3490 06E6                          u2930 02F6  
                        u2850 0266                          u2770 01D6                          u2690 0152  
                        u3491 06E5                          u4427 06A6                          u4347 0616  
                        u4267 0586                          u4187 04F6                          u2931 02F5  
                        u2851 0265                          u2771 01D5                          u3707 0190  
                        u2691 0151                          u3627 0100                          u3547 006A  
                        u2940 0308                          u2860 0278                          u2780 01E8  
                        u4437 06B8                          u4357 0628                          u4277 0598  
                        u4197 0508                          u2941 0307                          u2861 0277  
                        u2781 01E7                          u3717 01A2                          u3637 0112  
                        u3557 007C                          _MENU 001C                          u2950 031A  
                        u2870 028A                          u2790 01FA                          u4447 06CA  
                        u4367 063A                          u4287 05AA                          u2951 0319  
                        u2871 0289                          u3807 024A                          u2791 01F9  
                        u3727 01B4                          u3647 0124                          u3567 008E  
                        u2960 032C                          u2880 029C                          u4457 06DC  
                        u4377 064C                          u4297 05BC                          u2961 032B  
                        u2881 029B                          u3817 025C                          u3737 01C6  
                        u3657 0136                          u3577 00A0                          i1l50 08C6  
                        u2970 033E                          u2890 02AE                          i1l51 08D7  
                        i1l43 084F                          u4387 065E                          u2971 033D  
                        u3907 02FE                          u2891 02AD                          u3827 026E  
                        u3747 01DE                          u3667 0148                          u3587 00B2  
                        i1l60 0970                          i1l52 08E8                          i1l44 0860  
                        u2980 0350                          i1l61 0981                          i1l53 08F9  
                        i1l45 0871                          u4397 0670                          u2981 034F  
                        u3917 0310                          u3837 0280                          u3757 01F0  
                        u3677 015A                          u3597 00C4                          i1l54 090A  
                        i1l46 0882                          i1l70 09E8                          u2990 0362  
                        i1l63 0992                          i1l55 091B                          i1l47 0893  
                        i1l71 09F9                          u2991 0361                          u3927 0322  
                        u3847 0292                          u3767 0202                          u3687 016C  
                        i1l56 092C                          i1l48 08A4                          i1l80 0A87  
                        i1l72 0A0A                          i1l57 093D                          i1l49 08B5  
                        i1l81 0A98                          i1l73 0A1B                          u3937 0334  
                        u3857 02A4                          u3777 0214                          u3697 017E  
                        i1l58 094E                          i1l82 0AA9                          i1l74 0A2C  
                        i1l66 09A4                          i1l59 095F                          i1l91 0B37  
                        i1l83 0ABA                          i1l67 09B5                          u3947 0346  
                        u3867 02B6                          u3787 0226                          i1l92 0B48  
                        i1l84 0ACB                          i1l76 0A43                          i1l68 09C6  
                        i1l93 0B59                          i1l85 0ADC                          i1l77 0A54  
                        i1l69 09D7                          u3957 0358                          u3877 02C8  
                        u3797 0238                          i1l94 0B6A                          i1l86 0AED  
                        i1l78 0A65                          i1l95 0B7B                          i1l87 0AFE  
                        i1l79 0A76                          u3967 036A                          u3887 02DA  
                        i1l96 0B8C                          i1l88 0B0F                          i1l97 0B9D  
                        i1l89 0B20                          u3977 037C                          u3897 02EC  
                        i1l98 0BAE                          i1l99 0BBF                          u3987 038E  
                        u3997 03A0                          u1_20 084D                          u1_21 084C  
                        u2_20 085E                          u2_21 085D                          u3_20 086F  
                        u3_21 086E                          u4_20 0880                          u4_21 087F  
                        u5_20 0891                          u5_21 0890                          u6_20 08A2  
                        u6_21 08A1                          u7_20 08B3                          u7_21 08B2  
                        u8_20 08C4                          u8_21 08C3                          u9_20 08D5  
                        u9_21 08D4                          _main 0795                          btemp 007E  
                        start 000E                         ??_isr 0072                         ?_MENU 0070  
                       ?_main 0070                         _ANSEL 0188                         i1l100 0BD0  
                       i1l101 0BE1                         i1l110 0C7A                         i1l102 0BF2  
                       i1l111 0C8B                         i1l103 0C03                         i1l120 0D24  
                       i1l112 0C9C                         i1l104 0C14                         i1l121 0D35  
                       i1l113 0CAD                         i1l105 0C25                         i1l130 0DCE  
                       i1l122 0D46                         i1l114 0CBE                         i1l106 0C36  
                       i1l131 0DDF                         i1l123 0D57                         i1l115 0CCF  
                       i1l107 0C47                         i1l140 0E78                         i1l132 0DF0  
                       i1l124 0D68                         i1l116 0CE0                         i1l108 0C58  
                       i1l212 0769                         i1l141 0E89                         i1l133 0E01  
                       i1l125 0D79                         i1l117 0CF1                         i1l109 0C69  
                       i1l150 0F22                         i1l142 0E9A                         i1l134 0E12  
                       i1l126 0D8A                         i1l118 0D02                         i1l206 072A  
                       i1l214 078C                         i1l151 0F33                         i1l143 0EAB  
                       i1l135 0E23                         i1l127 0D9B                         i1l119 0D13  
                       i1l160 0FCC                         i1l152 0F44                         i1l144 0EBC  
                       i1l136 0E34                         i1l128 0DAC                         i1l161 0FDD  
                       i1l153 0F55                         i1l145 0ECD                         i1l137 0E45  
                       i1l129 0DBD                         i1l170 169A                         i1l162 0FEE  
                       i1l154 0F66                         i1l146 0EDE                         i1l138 0E56  
                       i1l171 16AB                         i1l155 0F77                         i1l147 0EEF  
                       i1l139 0E67                         i1l180 1744                         i1l172 16BC  
                       i1l164 0FFF                         i1l156 0F88                         i1l148 0F00  
                       i1l181 1755                         i1l173 16CD                         i1l157 0F99  
                       i1l149 0F11                         i1l190 17EE                         i1l182 1766  
                       i1l174 16DE                         i1l158 0FAA                         i1l183 1777  
                       i1l175 16EF                         i1l167 1667                         i1l159 0FBB  
                       i1l192 17FF                         i1l184 1788                         i1l176 1700  
                       i1l168 1678                         i1l185 1799                         i1l177 1711  
                       i1l169 1689                         i1l186 17AA                         i1l178 1722  
                       i1l187 17BB                         i1l179 1733                         i1l188 17CC  
                       i1l189 17DD                         i1l820 0858                         i1l830 0880  
                       i1l822 085E                         i1l814 083E                         i1l840 08AD  
                       i1l832 088B                         i1l824 0869                         i1l816 0847  
                       i1l850 08D5                         i1l842 08B3                         i1l834 0891  
                       i1l826 086F                         i1l818 084D                         i1l860 0902  
                       i1l852 08E0                         i1l844 08BE                         i1l836 089C  
                       i1l828 087A                         i1l870 092A                         i1l862 0908  
                       i1l854 08E6                         i1l846 08C4                         i1l838 08A2  
                       i1l880 0957                         i1l872 0935                         i1l864 0913  
                       i1l856 08F1                         i1l848 08CF                         i1l890 097F  
                       i1l882 095D                         i1l874 093B                         i1l866 0919  
                       i1l858 08F7                         i1l892 098A                         i1l884 0968  
                       i1l876 0946                         i1l868 0924                         i1l894 0990  
                       i1l886 096E                         i1l878 094C                         i1l888 0979  
                       _RCREG 001A                         u10_20 08E6                         u10_21 08E5  
                       u11_20 08F7                         u11_21 08F6                         u20_20 0990  
                       u12_20 0908                         u20_21 098F                         u12_21 0907  
                       u13_20 0919                         u13_21 0918                         u14_20 092A  
                       u14_21 0929                         u15_20 093B                         u15_21 093A  
                       u16_20 094C                         u16_21 094B                         u17_20 095D  
                       u17_21 095C                         u18_20 096E                         u18_21 096D  
                       _SPBRG 0099                         u19_20 097F                         u19_21 097E  
                       _PORTA 0005                         _PORTB 0006                         _TRISA 0085  
                       _TRISB 0086                         _TXREG 0019           __size_of_HOLA_MUNDO 0155  
                       pclath 000A                         status 0003                         wtemp0 007E  
                __end_of_MENU 06E9               __initialization 0011                  __end_of_main 07CC  
                      ??_MENU 0020                        ??_main 0022                        _ANSELH 0189  
                      i1l1300 1681                        i1l1310 16A9                        i1l1302 1687  
                      i1l1320 16D6                        i1l1312 16B4                        i1l1304 1692  
                      i1l1400 09B3                        i1l1330 16FE                        i1l1322 16DC  
                      i1l1314 16BA                        i1l1306 1698                        i1l1410 09E0  
                      i1l1402 09BE                        i1l1340 172B                        i1l1332 1709  
                      i1l1324 16E7                        i1l1316 16C5                        i1l1308 16A3  
                      i1l1500 0B46                        i1l1420 0A08                        i1l1412 09E6  
                      i1l1404 09C4                        i1l1350 1753                        i1l1342 1731  
                      i1l1334 170F                        i1l1326 16ED                        i1l1318 16CB  
                      i1l1510 0B73                        i1l1502 0B51                        i1l1430 0A35  
                      i1l1422 0A13                        i1l1414 09F1                        i1l1406 09CF  
                      i1l1360 1780                        i1l1352 175E                        i1l1344 173C  
                      i1l1336 171A                        i1l1328 16F8                        u120_20 1676  
                      u200_20 0D44                        i1l1600 0CEF                        i1l1520 0B9B  
                      i1l1512 0B79                        i1l1504 0B57                        i1l1440 0A52  
                      i1l1432 0A3B                        i1l1424 0A19                        i1l1416 09F7  
                      i1l1408 09D5                        i1l2400 0781                        u120_21 1675  
                      u200_21 0D43                        i1l1370 17A8                        i1l1362 1786  
                      i1l1354 1764                        i1l1346 1742                        i1l1338 1720  
                      i1l1290 1656                        i1l1610 0D1C                        i1l1602 0CFA  
                      i1l1530 0BC8                        i1l1522 0BA6                        i1l1514 0B84  
                      i1l1506 0B62                        i1l1450 0A7F                        i1l1442 0A5D  
                      i1l1434 0A3D                        i1l1426 0A24                        i1l1418 0A02  
                      i1l1380 17D5                        i1l1372 17B3                        i1l1364 1791  
                      i1l1356 176F                        i1l1348 174D                        i1l1292 165F  
                      i1l1700 0E98                        i1l1620 0D44                        i1l1612 0D22  
                      i1l1604 0D00                        i1l1540 0BF0                        i1l1532 0BCE  
                      i1l1524 0BAC                        i1l1516 0B8A                        i1l1508 0B68  
                      i1l1460 0AA7                        i1l1452 0A85                        i1l1444 0A63  
                      i1l1436 0A41                        i1l1428 0A2A                        i1l1390 17FD  
                      i1l1382 17DB                        i1l1374 17B9                        i1l1366 1797  
                      i1l1358 1775                        i1l1294 1665                        i1l1710 0EC5  
                      i1l1702 0EA3                        i1l1630 0D71                        i1l1622 0D4F  
                      i1l1614 0D2D                        i1l1606 0D0B                        i1l1550 0C1D  
                      i1l1542 0BFB                        i1l1534 0BD9                        i1l1526 0BB7  
                      i1l1518 0B95                        i1l1470 0AD4                        i1l1462 0AB2  
                      i1l1454 0A90                        i1l1446 0A6E                        i1l1438 0A4C  
                      i1l1384 17E6                        i1l1376 17C4                        i1l1368 17A2  
                      u121_20 1687                        i1l1296 1670                        i1l1720 0EED  
                      i1l1712 0ECB                        i1l1704 0EA9                        i1l1640 0D99  
                      i1l1632 0D77                        i1l1624 0D55                        u201_20 0D55  
                      i1l1616 0D33                        i1l1608 0D11                        i1l1560 0C45  
                      i1l1552 0C23                        i1l1544 0C01                        i1l1536 0BDF  
                      i1l1528 0BBD                        i1l1480 0AFC                        i1l1472 0ADA  
                      i1l1464 0AB8                        i1l1456 0A96                        i1l1448 0A74  
                      i1l1392 0993                        i1l1800 0708                        u121_21 1686  
                      u201_21 0D54                        i1l1386 17EC                        i1l1378 17CA  
                      i1l1298 1676                        i1l1730 0F1A                        i1l1722 0EF8  
                      i1l1714 0ED6                        i1l1706 0EB4                        i1l1650 0DC6  
                      i1l1642 0DA4                        i1l1634 0D82                        i1l1626 0D60  
                      i1l1618 0D3E                        i1l1570 0C72                        i1l1562 0C50  
                      i1l1554 0C2E                        i1l1546 0C0C                        i1l1538 0BEA  
                      i1l1490 0B29                        i1l1482 0B07                        i1l1474 0AE5  
                      i1l1466 0AC3                        i1l1458 0AA1                        i1l1394 099C  
                      i1l1810 0728                        i1l1802 070E                        i1l1388 17F7  
                      i1l1740 0F42                        i1l1732 0F20                        i1l1724 0EFE  
                      i1l1716 0EDC                        i1l1708 0EBA                        i1l1660 0DEE  
                      i1l1652 0DCC                        i1l1644 0DAA                        i1l1636 0D88  
                      i1l1628 0D66                        i1l1580 0C9A                        i1l1572 0C78  
                      i1l1564 0C56                        i1l1556 0C34                        i1l1548 0C12  
                      i1l1492 0B2F                        i1l1484 0B0D                        i1l1476 0AEB  
                      i1l1468 0AC9                        i1l1396 09A2                        i1l1820 0742  
                      i1l1812 0733                        i1l1804 0714                        i1l1750 0F6F  
                      i1l1742 0F4D                        i1l1734 0F2B                        i1l1726 0F09  
                      i1l1718 0EE7                        i1l1670 0E1B                        i1l1662 0DF9  
                      i1l1654 0DD7                        i1l1646 0DB5                        i1l1638 0D93  
                      i1l1590 0CC7                        i1l1582 0CA5                        i1l1574 0C83  
                      i1l1566 0C61                        i1l1558 0C3F                        i1l1494 0B31  
                      i1l1486 0B18                        i1l1478 0AF6                        i1l1398 09AD  
                      i1l1830 0761                        i1l1822 0747                        i1l1814 0739  
                      i1l1806 0719                        u130_20 1720                        u122_20 1698  
                      i1l1760 0F97                        i1l1752 0F75                        i1l1744 0F53  
                      i1l1736 0F31                        i1l1728 0F0F                        i1l1680 0E43  
                      i1l1672 0E21                        i1l1664 0DFF                        u210_20 0DEE  
                      i1l1656 0DDD                        i1l1648 0DBB                        u202_20 0D66  
                      i1l1592 0CCD                        i1l1584 0CAB                        i1l1576 0C89  
                      i1l1568 0C67                        i1l1496 0B35                        i1l1488 0B1E  
                      i1l1832 0767                        i1l1824 074D                        i1l1816 073B  
                      i1l1808 0722                        u130_21 171F                        u122_21 1697  
                      u210_21 0DED                        u202_21 0D65                        i1l1770 0FC4  
                      i1l1762 0FA2                        i1l1754 0F80                        i1l1746 0F5E  
                      i1l1738 0F3C                        i1l1690 0E70                        i1l1682 0E4E  
                      i1l1674 0E2C                        i1l1666 0E0A                        i1l1658 0DE8  
                      i1l1594 0CD8                        i1l1586 0CB6                        i1l1578 0C94  
                      i1l1498 0B40                        i1l1834 0772                        i1l1826 0753  
                      i1l1818 0740                        i1l1780 0FEC                        i1l1772 0FCA  
                      i1l1764 0FA8                        i1l1756 0F86                        i1l1748 0F64  
                      i1l1692 0E76                        i1l1684 0E54                        i1l1676 0E32  
                      i1l1668 0E10                        i1l1596 0CDE                        i1l1588 0CBC  
                      i1l1828 0758                        i1l1844 0779                        i1l1782 0FF7  
                      i1l1774 0FD5                        i1l1766 0FB3                        i1l1758 0F91  
                      i1l1694 0E81                        i1l1686 0E5F                        i1l1678 0E3D  
                      i1l1598 0CE9                        i1l1790 06F0                        u131_20 1731  
                      u123_20 16A9                        i1l1784 0FFD                        i1l1776 0FDB  
                      i1l1768 0FB9                        i1l1696 0E87                        i1l1688 0E65  
                      u211_20 0DFF                        u203_20 0D77                        i1l1792 06F5  
                      u131_21 1730                        u123_21 16A8                        u211_21 0DFE  
                      u203_21 0D76                        i1l1778 0FE6                        i1l1698 0E92  
                      i1l1794 06FB                        i1l1786 06E9                        i1l1796 06FD  
                      i1l1798 0703                        u140_20 17CA                        u132_20 1742  
                      u124_20 16BA                        u220_20 0E98                        u212_20 0E10  
                      u204_20 0D88                        u140_21 17C9                        u132_21 1741  
                      u124_21 16B9                        u220_21 0E97                        u212_21 0E0F  
                      u204_21 0D87                        u141_20 17DB                        u133_20 1753  
                      u125_20 16CB                        u221_20 0EA9                        u213_20 0E21  
                      u205_20 0D99                        u141_21 17DA                        u133_21 1752  
                      u125_21 16CA                        u221_21 0EA8                        u213_21 0E20  
                      u205_21 0D98                        u142_20 17EC                        u134_20 1764  
                      u126_20 16DC                        u230_20 0F42                        u222_20 0EBA  
                      u214_20 0E32                        u206_20 0DAA                        u150_20 0A08  
                      u142_21 17EB                        u134_21 1763                        u126_21 16DB  
                      u230_21 0F41                        u222_21 0EB9                        u214_21 0E31  
                      u206_21 0DA9                        u150_21 0A07                        u143_20 17FD  
                      u135_20 1775                        u127_20 16ED                        u119_20 1665  
                      u231_20 0F53                        u223_20 0ECB                        u215_20 0E43  
                      u207_20 0DBB                        u151_20 0A19                        u143_21 17FC  
                      u135_21 1774                        u127_21 16EC                        u119_21 1664  
                      u231_21 0F52                        u223_21 0ECA                        u215_21 0E42  
                      u207_21 0DBA                        u151_21 0A18                        u136_20 1786  
                      u128_20 16FE                        u240_20 0FEC                        u232_20 0F64  
                      u224_20 0EDC                        u216_20 0E54                        u208_20 0DCC  
                      u160_20 0AA7                        u152_20 0A2A                        u144_20 09A2  
                      u136_21 1785                        u128_21 16FD                        u240_21 0FEB  
                      u232_21 0F63                        u224_21 0EDB                        u216_21 0E53  
                      u208_21 0DCB                        u160_21 0AA6                        u152_21 0A29  
                      u144_21 09A1                        u137_20 1797                        u129_20 170F  
                      u241_20 0FFD                        u233_20 0F75                        u225_20 0EED  
                      u217_20 0E65                        u209_20 0DDD                        u161_20 0AB8  
                      u153_20 0A3B                        u145_20 09B3                        u137_21 1796  
                      u129_21 170E                        u241_21 0FFC                        u233_21 0F74  
                      u225_21 0EEC                        u217_21 0E64                        u209_21 0DDC  
                      u161_21 0AB7                        u153_21 0A3A                        u145_21 09B2  
                      u138_20 17A8                        u234_20 0F86                        u226_20 0EFE  
                      u218_20 0E76                        u170_20 0B46                        u162_20 0AC9  
                      u154_20 0A41                        u146_20 09C4                        u250_20 0767  
                      u242_20 06EF                        u138_21 17A7                        u234_21 0F85  
                      u226_21 0EFD                        u218_21 0E75                        u170_21 0B45  
                      u162_21 0AC8                        u154_21 0A40                        u146_21 09C3  
                      u250_21 0766                        u242_21 06EE                        u139_20 17B9  
                      u235_20 0F97                        u227_20 0F0F                        u219_20 0E87  
                      u171_20 0B57                        u163_20 0ADA                        u155_20 0A52  
                      u147_20 09D5                        u251_20 0778                        u243_20 06FB  
                      u139_21 17B8                        u235_21 0F96                        u227_21 0F0E  
                      u219_21 0E86                        u171_21 0B56                        u163_21 0AD9  
                      u155_21 0A51                        u147_21 09D4                        u251_21 0777  
                      u243_21 06FA                        u236_20 0FA8                        u228_20 0F20  
                      u180_20 0BF0                        u172_20 0B68                        u164_20 0AEB  
                      u156_20 0A63                        u148_20 09E6                        u244_20 070E  
                      u236_21 0FA7                        u228_21 0F1F                        u180_21 0BEF  
                      u172_21 0B67                        u164_21 0AEA                        u156_21 0A62  
                      u148_21 09E5                        u244_21 070D                        u500_27 0CF5  
                      u237_20 0FB9                        u229_20 0F31                        u181_20 0C01  
                      u173_20 0B79                        u165_20 0AFC                        u157_20 0A74  
                      u149_20 09F7                        u245_20 0719                        u237_21 0FB8  
                      u229_21 0F30                        u181_21 0C00                        u173_21 0B78  
                      u165_21 0AFB                        u157_21 0A73                        u149_21 09F6  
                      u245_21 0718                        u501_27 0D06                        u238_20 0FCA  
                      u190_20 0C9A                        u182_20 0C12                        u174_20 0B8A  
                      u166_20 0B0D                        u158_20 0A85                        u246_20 0728  
                      u238_21 0FC9                        u190_21 0C99                        u182_21 0C11  
                      u174_21 0B89                        u166_21 0B0C                        u158_21 0A84  
                      u246_21 0727                        u510_27 0D9F                        u502_27 0D17  
                      u239_20 0FDB                        u191_20 0CAB                        u183_20 0C23  
                      u175_20 0B9B                        u167_20 0B1E                        u159_20 0A96  
                      u247_20 0739                        u239_21 0FDA                        u191_21 0CAA  
                      u183_21 0C22                        u175_21 0B9A                        u167_21 0B1D  
                      u159_21 0A95                        u247_21 0738                        u511_27 0DB0  
                      u503_27 0D28                        u192_20 0CBC                        u184_20 0C34  
                      u176_20 0BAC                        u168_20 0B2F                        u248_20 074D  
                      u192_21 0CBB                        u184_21 0C33                        u176_21 0BAB  
                      u168_21 0B2E                        u248_21 074C                        u520_27 0E49  
                      u512_27 0DC1                        u504_27 0D39                        u193_20 0CCD  
                      u185_20 0C45                        u177_20 0BBD                        u169_20 0B35  
                      u249_20 0758                        u193_21 0CCC                        u185_21 0C44  
                      u177_21 0BBC                        u169_21 0B34                        u249_21 0757  
                      u521_27 0E5A                        u513_27 0DD2                        u505_27 0D4A  
                      u194_20 0CDE                        u186_20 0C56                        u178_20 0BCE  
                      u194_21 0CDD                        u186_21 0C55                        u178_21 0BCD  
                      u530_27 0EF3                        u522_27 0E6B                        u514_27 0DE3  
                      u506_27 0D5B                        u450_27 0997                        u195_20 0CEF  
                      u187_20 0C67                        u179_20 0BDF                        u195_21 0CEE  
                      u187_21 0C66                        u179_21 0BDE                        u531_27 0F04  
                      u523_27 0E7C                        u515_27 0DF4                        u507_27 0D6C  
                      u451_27 09A8                        u196_20 0D00                        u188_20 0C78  
                      u196_21 0CFF                        u188_21 0C77                        u540_27 0F9D  
                      u532_27 0F15                        u524_27 0E8D                        u516_27 0E05  
                      u508_27 0D7D                        u460_27 0A47                        u452_27 09B9  
                      u197_20 0D11                        u189_20 0C89                        u197_21 0D10  
                      u189_21 0C88                        i1_MENU 0993                        u541_27 0FAE  
                      u533_27 0F26                        u525_27 0E9E                        u517_27 0E16  
                      u509_27 0D8E                        u461_27 0A58                        u453_27 09CA  
                      u198_20 0D22                        u198_21 0D21                        u550_27 169E  
                      u542_27 0FBF                        u534_27 0F37                        u526_27 0EAF  
                      u518_27 0E27                        u470_27 0AF1                        u462_27 0A69  
                      u454_27 09DB                        u446_27 071D                        u199_20 0D33  
                      u199_21 0D32                        u551_27 16AF                        u543_27 0FD0  
                      u535_27 0F48                        u527_27 0EC0                        u519_27 0E38  
                      u471_27 0B02                        u463_27 0A7A                        u455_27 09EC  
                      u447_27 072E                        u560_27 1748                        u552_27 16C0  
                      u544_27 0FE1                        u536_27 0F59                        u528_27 0ED1  
                      u480_27 0BA1                        u472_27 0B13                        u464_27 0A8B  
                      u456_27 09FD                        u448_27 075C                        u561_27 1759  
                      u553_27 16D1                        u545_27 0FF2                        u537_27 0F6A  
                      u529_27 0EE2                        u481_27 0BB2                        u473_27 0B24  
                      u465_27 0A9C                        u457_27 0A0E                        u449_27 076D  
                      u570_27 17F2                        u562_27 176A                        u554_27 16E2  
                      u546_27 165A                        u538_27 0F7B                        u490_27 0C4B  
                      u482_27 0BC3                        u474_27 0B3B                        u466_27 0AAD  
                      u458_27 0A1F                        u571_27 0842                        u563_27 177B  
                      u555_27 16F3                        u547_27 166B                        u539_27 0F8C  
                      u491_27 0C5C                        u483_27 0BD4                        u475_27 0B4C  
                      u467_27 0ABE                        u459_27 0A30                        u580_27 08DB  
                      u572_27 0853                        u564_27 178C                        u556_27 1704  
                      u548_27 167C                        u492_27 0C6D                        u484_27 0BE5  
                      u476_27 0B5D                        u468_27 0ACF                        u581_27 08EC  
                      u573_27 0864                        u565_27 179D                        u557_27 1715  
                      u549_27 168D                        u493_27 0C7E                        u485_27 0BF6  
                      u477_27 0B6E                        u469_27 0AE0                        u590_27 0985  
                      u582_27 08FD                        u574_27 0875                        u566_27 17AE  
                      u558_27 1726                        u494_27 0C8F                        u486_27 0C07  
                      u478_27 0B7F                        u583_27 090E                        u575_27 0886  
                      u567_27 17BF                        u559_27 1737                        u495_27 0CA0  
                      u487_27 0C18                        u479_27 0B90                        u584_27 091F  
                      u576_27 0897                        u568_27 17D0                        u496_27 0CB1  
                      u488_27 0C29                        u585_27 0930                        u577_27 08A8  
                      u569_27 17E1                        u497_27 0CC2                        u489_27 0C3A  
                      u586_27 0941                        u578_27 08B9                        u498_27 0CD3  
                      u587_27 0952                        u579_27 08CA                        u499_27 0CE4  
                      u588_27 0963                        u589_27 0974                        _SPBRGH 009A  
                __pdataCOMMON 0078                        saved_w 007E       __end_of__initialization 0018  
              __pcstackCOMMON 0070                  ??_HOLA_MUNDO 0070  __size_of_INGRESE_NUEVO_VALOR 01AA  
          __end_of_HOLA_MUNDO 0993                       ?i1_MENU 0070                    __pmaintext 0795  
                  __pintentry 0004               __size_ofi1_MENU 066D                       _Boolean 0077  
                     __ptext1 001C                       __ptext2 06E9                       __ptext3 0993  
                     __ptext4 1656                       __ptext5 083E                  __size_of_isr 00AC  
        end_of_initialization 0018                     _RCSTAbits 0018                     _TXSTAbits 0098  
              __end_ofi1_MENU 1000           _INGRESE_NUEVO_VALOR 1656                 __pidataCOMMON 07CC  
                 _BAUDCTLbits 0187           start_initialization 0011                   __end_of_isr 0795  
        ?_INGRESE_NUEVO_VALOR 0070                      ??i1_MENU 0070                   __pbssCOMMON 0077  
                   ___latbits 0002                 __pcstackBANK0 0020         ??_INGRESE_NUEVO_VALOR 0070  
           interrupt_function 0004                      _PIE1bits 008C                      _PIR1bits 000C  
               __size_of_MENU 06CD                 __size_of_main 0037                    _HOLA_MUNDO 083E  
                  _INTCONbits 000B                      intlevel1 0000                    _OSCCONbits 008F  
 __end_of_INGRESE_NUEVO_VALOR 1800  
